ARM GAS  C:\Users\User\AppData\Local\Temp\cc4wfuap.s 			page 1


   1              		.cpu cortex-m4
   2              		.eabi_attribute 27, 1
   3              		.eabi_attribute 28, 1
   4              		.eabi_attribute 20, 1
   5              		.eabi_attribute 21, 1
   6              		.eabi_attribute 23, 3
   7              		.eabi_attribute 24, 1
   8              		.eabi_attribute 25, 1
   9              		.eabi_attribute 26, 1
  10              		.eabi_attribute 30, 1
  11              		.eabi_attribute 34, 1
  12              		.eabi_attribute 18, 4
  13              		.file	"main.c"
  14              		.text
  15              	.Ltext0:
  16              		.cfi_sections	.debug_frame
  17              		.section	.text.Error_Handler,"ax",%progbits
  18              		.align	1
  19              		.global	Error_Handler
  20              		.syntax unified
  21              		.thumb
  22              		.thumb_func
  23              		.fpu fpv4-sp-d16
  25              	Error_Handler:
  26              	.LFB136:
  27              		.file 1 "Core/Src/main.c"
   1:Core/Src/main.c **** /* USER CODE BEGIN Header */
   2:Core/Src/main.c **** /**
   3:Core/Src/main.c ****   ******************************************************************************
   4:Core/Src/main.c ****   * @file           : main.c
   5:Core/Src/main.c ****   * @brief          : Main program body
   6:Core/Src/main.c ****   ******************************************************************************
   7:Core/Src/main.c ****   * @attention
   8:Core/Src/main.c ****   *
   9:Core/Src/main.c ****   * <h2><center>&copy; Copyright (c) 2021 STMicroelectronics.
  10:Core/Src/main.c ****   * All rights reserved.</center></h2>
  11:Core/Src/main.c ****   *
  12:Core/Src/main.c ****   * This software component is licensed by ST under BSD 3-Clause license,
  13:Core/Src/main.c ****   * the "License"; You may not use this file except in compliance with the
  14:Core/Src/main.c ****   * License. You may obtain a copy of the License at:
  15:Core/Src/main.c ****   *                        opensource.org/licenses/BSD-3-Clause
  16:Core/Src/main.c ****   *
  17:Core/Src/main.c ****   ******************************************************************************
  18:Core/Src/main.c ****   */
  19:Core/Src/main.c **** /* USER CODE END Header */
  20:Core/Src/main.c **** /* Includes ------------------------------------------------------------------*/
  21:Core/Src/main.c **** #include "main.h"
  22:Core/Src/main.c **** #include "usb_device.h"
  23:Core/Src/main.c **** #include "gpio.h"
  24:Core/Src/main.c **** 
  25:Core/Src/main.c **** /* Private includes ----------------------------------------------------------*/
  26:Core/Src/main.c **** /* USER CODE BEGIN Includes */
  27:Core/Src/main.c **** 
  28:Core/Src/main.c **** /* USER CODE END Includes */
  29:Core/Src/main.c **** 
  30:Core/Src/main.c **** /* Private typedef -----------------------------------------------------------*/
  31:Core/Src/main.c **** /* USER CODE BEGIN PTD */
ARM GAS  C:\Users\User\AppData\Local\Temp\cc4wfuap.s 			page 2


  32:Core/Src/main.c **** 
  33:Core/Src/main.c **** /* USER CODE END PTD */
  34:Core/Src/main.c **** 
  35:Core/Src/main.c **** /* Private define ------------------------------------------------------------*/
  36:Core/Src/main.c **** /* USER CODE BEGIN PD */
  37:Core/Src/main.c **** /* USER CODE END PD */
  38:Core/Src/main.c **** 
  39:Core/Src/main.c **** /* Private macro -------------------------------------------------------------*/
  40:Core/Src/main.c **** /* USER CODE BEGIN PM */
  41:Core/Src/main.c **** 
  42:Core/Src/main.c **** /* USER CODE END PM */
  43:Core/Src/main.c **** 
  44:Core/Src/main.c **** /* Private variables ---------------------------------------------------------*/
  45:Core/Src/main.c **** 
  46:Core/Src/main.c **** /* USER CODE BEGIN PV */
  47:Core/Src/main.c **** 
  48:Core/Src/main.c **** /* USER CODE END PV */
  49:Core/Src/main.c **** 
  50:Core/Src/main.c **** /* Private function prototypes -----------------------------------------------*/
  51:Core/Src/main.c **** void SystemClock_Config(void);
  52:Core/Src/main.c **** /* USER CODE BEGIN PFP */
  53:Core/Src/main.c **** 
  54:Core/Src/main.c **** /* USER CODE END PFP */
  55:Core/Src/main.c **** 
  56:Core/Src/main.c **** /* Private user code ---------------------------------------------------------*/
  57:Core/Src/main.c **** /* USER CODE BEGIN 0 */
  58:Core/Src/main.c **** 
  59:Core/Src/main.c **** /* USER CODE END 0 */
  60:Core/Src/main.c **** 
  61:Core/Src/main.c **** /**
  62:Core/Src/main.c ****   * @brief  The application entry point.
  63:Core/Src/main.c ****   * @retval int
  64:Core/Src/main.c ****   */
  65:Core/Src/main.c **** extern uint8_t CDC_Transmit_FS(uint8_t* Buf, uint16_t Len);
  66:Core/Src/main.c **** int main(void)
  67:Core/Src/main.c **** {
  68:Core/Src/main.c ****   /* USER CODE BEGIN 1 */
  69:Core/Src/main.c ****         
  70:Core/Src/main.c ****   /* USER CODE END 1 */
  71:Core/Src/main.c **** 
  72:Core/Src/main.c ****   /* MCU Configuration--------------------------------------------------------*/
  73:Core/Src/main.c **** 
  74:Core/Src/main.c ****   /* Reset of all peripherals, Initializes the Flash interface and the Systick. */
  75:Core/Src/main.c ****   HAL_Init();
  76:Core/Src/main.c **** 
  77:Core/Src/main.c ****   /* USER CODE BEGIN Init */
  78:Core/Src/main.c **** 
  79:Core/Src/main.c ****   /* USER CODE END Init */
  80:Core/Src/main.c **** 
  81:Core/Src/main.c ****   /* Configure the system clock */
  82:Core/Src/main.c ****   SystemClock_Config();
  83:Core/Src/main.c **** 
  84:Core/Src/main.c ****   /* USER CODE BEGIN SysInit */
  85:Core/Src/main.c **** 
  86:Core/Src/main.c ****   /* USER CODE END SysInit */
  87:Core/Src/main.c **** 
  88:Core/Src/main.c ****   /* Initialize all configured peripherals */
ARM GAS  C:\Users\User\AppData\Local\Temp\cc4wfuap.s 			page 3


  89:Core/Src/main.c ****   MX_GPIO_Init();
  90:Core/Src/main.c ****   MX_USB_DEVICE_Init();
  91:Core/Src/main.c ****   /* USER CODE BEGIN 2 */
  92:Core/Src/main.c ****   
  93:Core/Src/main.c ****   /* USER CODE END 2 */
  94:Core/Src/main.c ****   // extern uint8_t CDC_Transmit_FS(uint8_t* Buf, uint16_t Len);
  95:Core/Src/main.c ****   /* Infinite loop */
  96:Core/Src/main.c ****   /* USER CODE BEGIN WHILE */
  97:Core/Src/main.c ****   uint8_t buffer[] = {0x55};
  98:Core/Src/main.c ****   while (1)
  99:Core/Src/main.c ****   {                           
 100:Core/Src/main.c ****     /* USER CODE END WHILE */
 101:Core/Src/main.c ****     HAL_GPIO_TogglePin(GPIOD, GPIO_PIN_15);
 102:Core/Src/main.c ****     HAL_Delay(100);
 103:Core/Src/main.c ****     HAL_GPIO_TogglePin(GPIOD, GPIO_PIN_14);
 104:Core/Src/main.c ****     HAL_Delay(100);
 105:Core/Src/main.c ****     HAL_GPIO_TogglePin(GPIOD, GPIO_PIN_13);
 106:Core/Src/main.c ****     HAL_Delay(100);
 107:Core/Src/main.c ****     CDC_Transmit_FS(buffer, sizeof(buffer));
 108:Core/Src/main.c ****     // HAL_Delay(1000);
 109:Core/Src/main.c ****     /* USER CODE BEGIN 3 */
 110:Core/Src/main.c ****   }
 111:Core/Src/main.c ****   /* USER CODE END 3 */
 112:Core/Src/main.c **** }
 113:Core/Src/main.c **** 
 114:Core/Src/main.c **** /**
 115:Core/Src/main.c ****   * @brief System Clock Configuration
 116:Core/Src/main.c ****   * @retval None
 117:Core/Src/main.c ****   */
 118:Core/Src/main.c **** void SystemClock_Config(void)
 119:Core/Src/main.c **** {
 120:Core/Src/main.c ****   RCC_OscInitTypeDef RCC_OscInitStruct = {0};
 121:Core/Src/main.c ****   RCC_ClkInitTypeDef RCC_ClkInitStruct = {0};
 122:Core/Src/main.c **** 
 123:Core/Src/main.c ****   /** Configure the main internal regulator output voltage
 124:Core/Src/main.c ****   */
 125:Core/Src/main.c ****   __HAL_RCC_PWR_CLK_ENABLE();
 126:Core/Src/main.c ****   __HAL_PWR_VOLTAGESCALING_CONFIG(PWR_REGULATOR_VOLTAGE_SCALE1);
 127:Core/Src/main.c ****   /** Initializes the RCC Oscillators according to the specified parameters
 128:Core/Src/main.c ****   * in the RCC_OscInitTypeDef structure.
 129:Core/Src/main.c ****   */
 130:Core/Src/main.c ****   RCC_OscInitStruct.OscillatorType = RCC_OSCILLATORTYPE_HSI|RCC_OSCILLATORTYPE_HSE;
 131:Core/Src/main.c ****   RCC_OscInitStruct.HSEState = RCC_HSE_ON;
 132:Core/Src/main.c ****   RCC_OscInitStruct.HSIState = RCC_HSI_ON;
 133:Core/Src/main.c ****   RCC_OscInitStruct.HSICalibrationValue = RCC_HSICALIBRATION_DEFAULT;
 134:Core/Src/main.c ****   RCC_OscInitStruct.PLL.PLLState = RCC_PLL_ON;
 135:Core/Src/main.c ****   RCC_OscInitStruct.PLL.PLLSource = RCC_PLLSOURCE_HSE;
 136:Core/Src/main.c ****   RCC_OscInitStruct.PLL.PLLM = 15;
 137:Core/Src/main.c ****   RCC_OscInitStruct.PLL.PLLN = 144;
 138:Core/Src/main.c ****   RCC_OscInitStruct.PLL.PLLP = RCC_PLLP_DIV2;
 139:Core/Src/main.c ****   RCC_OscInitStruct.PLL.PLLQ = 5;
 140:Core/Src/main.c ****   if (HAL_RCC_OscConfig(&RCC_OscInitStruct) != HAL_OK)
 141:Core/Src/main.c ****   {
 142:Core/Src/main.c ****     Error_Handler();
 143:Core/Src/main.c ****   }
 144:Core/Src/main.c ****   /** Initializes the CPU, AHB and APB buses clocks
 145:Core/Src/main.c ****   */
ARM GAS  C:\Users\User\AppData\Local\Temp\cc4wfuap.s 			page 4


 146:Core/Src/main.c ****   RCC_ClkInitStruct.ClockType = RCC_CLOCKTYPE_HCLK|RCC_CLOCKTYPE_SYSCLK
 147:Core/Src/main.c ****                               |RCC_CLOCKTYPE_PCLK1|RCC_CLOCKTYPE_PCLK2;
 148:Core/Src/main.c ****   RCC_ClkInitStruct.SYSCLKSource = RCC_SYSCLKSOURCE_HSI;
 149:Core/Src/main.c ****   RCC_ClkInitStruct.AHBCLKDivider = RCC_SYSCLK_DIV1;
 150:Core/Src/main.c ****   RCC_ClkInitStruct.APB1CLKDivider = RCC_HCLK_DIV1;
 151:Core/Src/main.c ****   RCC_ClkInitStruct.APB2CLKDivider = RCC_HCLK_DIV1;
 152:Core/Src/main.c **** 
 153:Core/Src/main.c ****   if (HAL_RCC_ClockConfig(&RCC_ClkInitStruct, FLASH_LATENCY_0) != HAL_OK)
 154:Core/Src/main.c ****   {
 155:Core/Src/main.c ****     Error_Handler();
 156:Core/Src/main.c ****   }
 157:Core/Src/main.c **** }
 158:Core/Src/main.c **** 
 159:Core/Src/main.c **** /* USER CODE BEGIN 4 */
 160:Core/Src/main.c **** 
 161:Core/Src/main.c **** /* USER CODE END 4 */
 162:Core/Src/main.c **** 
 163:Core/Src/main.c **** /**
 164:Core/Src/main.c ****   * @brief  This function is executed in case of error occurrence.
 165:Core/Src/main.c ****   * @retval None
 166:Core/Src/main.c ****   */
 167:Core/Src/main.c **** void Error_Handler(void)
 168:Core/Src/main.c **** {
  28              		.loc 1 168 0
  29              		.cfi_startproc
  30              		@ Volatile: function does not return.
  31              		@ args = 0, pretend = 0, frame = 0
  32              		@ frame_needed = 0, uses_anonymous_args = 0
  33              		@ link register save eliminated.
  34              	.LBB4:
  35              	.LBB5:
  36              		.file 2 "Drivers/CMSIS/Include/cmsis_gcc.h"
   1:Drivers/CMSIS/Include/cmsis_gcc.h **** /**************************************************************************//**
   2:Drivers/CMSIS/Include/cmsis_gcc.h ****  * @file     cmsis_gcc.h
   3:Drivers/CMSIS/Include/cmsis_gcc.h ****  * @brief    CMSIS compiler GCC header file
   4:Drivers/CMSIS/Include/cmsis_gcc.h ****  * @version  V5.0.4
   5:Drivers/CMSIS/Include/cmsis_gcc.h ****  * @date     09. April 2018
   6:Drivers/CMSIS/Include/cmsis_gcc.h ****  ******************************************************************************/
   7:Drivers/CMSIS/Include/cmsis_gcc.h **** /*
   8:Drivers/CMSIS/Include/cmsis_gcc.h ****  * Copyright (c) 2009-2018 Arm Limited. All rights reserved.
   9:Drivers/CMSIS/Include/cmsis_gcc.h ****  *
  10:Drivers/CMSIS/Include/cmsis_gcc.h ****  * SPDX-License-Identifier: Apache-2.0
  11:Drivers/CMSIS/Include/cmsis_gcc.h ****  *
  12:Drivers/CMSIS/Include/cmsis_gcc.h ****  * Licensed under the Apache License, Version 2.0 (the License); you may
  13:Drivers/CMSIS/Include/cmsis_gcc.h ****  * not use this file except in compliance with the License.
  14:Drivers/CMSIS/Include/cmsis_gcc.h ****  * You may obtain a copy of the License at
  15:Drivers/CMSIS/Include/cmsis_gcc.h ****  *
  16:Drivers/CMSIS/Include/cmsis_gcc.h ****  * www.apache.org/licenses/LICENSE-2.0
  17:Drivers/CMSIS/Include/cmsis_gcc.h ****  *
  18:Drivers/CMSIS/Include/cmsis_gcc.h ****  * Unless required by applicable law or agreed to in writing, software
  19:Drivers/CMSIS/Include/cmsis_gcc.h ****  * distributed under the License is distributed on an AS IS BASIS, WITHOUT
  20:Drivers/CMSIS/Include/cmsis_gcc.h ****  * WARRANTIES OR CONDITIONS OF ANY KIND, either express or implied.
  21:Drivers/CMSIS/Include/cmsis_gcc.h ****  * See the License for the specific language governing permissions and
  22:Drivers/CMSIS/Include/cmsis_gcc.h ****  * limitations under the License.
  23:Drivers/CMSIS/Include/cmsis_gcc.h ****  */
  24:Drivers/CMSIS/Include/cmsis_gcc.h **** 
  25:Drivers/CMSIS/Include/cmsis_gcc.h **** #ifndef __CMSIS_GCC_H
ARM GAS  C:\Users\User\AppData\Local\Temp\cc4wfuap.s 			page 5


  26:Drivers/CMSIS/Include/cmsis_gcc.h **** #define __CMSIS_GCC_H
  27:Drivers/CMSIS/Include/cmsis_gcc.h **** 
  28:Drivers/CMSIS/Include/cmsis_gcc.h **** /* ignore some GCC warnings */
  29:Drivers/CMSIS/Include/cmsis_gcc.h **** #pragma GCC diagnostic push
  30:Drivers/CMSIS/Include/cmsis_gcc.h **** #pragma GCC diagnostic ignored "-Wsign-conversion"
  31:Drivers/CMSIS/Include/cmsis_gcc.h **** #pragma GCC diagnostic ignored "-Wconversion"
  32:Drivers/CMSIS/Include/cmsis_gcc.h **** #pragma GCC diagnostic ignored "-Wunused-parameter"
  33:Drivers/CMSIS/Include/cmsis_gcc.h **** 
  34:Drivers/CMSIS/Include/cmsis_gcc.h **** /* Fallback for __has_builtin */
  35:Drivers/CMSIS/Include/cmsis_gcc.h **** #ifndef __has_builtin
  36:Drivers/CMSIS/Include/cmsis_gcc.h ****   #define __has_builtin(x) (0)
  37:Drivers/CMSIS/Include/cmsis_gcc.h **** #endif
  38:Drivers/CMSIS/Include/cmsis_gcc.h **** 
  39:Drivers/CMSIS/Include/cmsis_gcc.h **** /* CMSIS compiler specific defines */
  40:Drivers/CMSIS/Include/cmsis_gcc.h **** #ifndef   __ASM
  41:Drivers/CMSIS/Include/cmsis_gcc.h ****   #define __ASM                                  __asm
  42:Drivers/CMSIS/Include/cmsis_gcc.h **** #endif
  43:Drivers/CMSIS/Include/cmsis_gcc.h **** #ifndef   __INLINE
  44:Drivers/CMSIS/Include/cmsis_gcc.h ****   #define __INLINE                               inline
  45:Drivers/CMSIS/Include/cmsis_gcc.h **** #endif
  46:Drivers/CMSIS/Include/cmsis_gcc.h **** #ifndef   __STATIC_INLINE
  47:Drivers/CMSIS/Include/cmsis_gcc.h ****   #define __STATIC_INLINE                        static inline
  48:Drivers/CMSIS/Include/cmsis_gcc.h **** #endif
  49:Drivers/CMSIS/Include/cmsis_gcc.h **** #ifndef   __STATIC_FORCEINLINE                 
  50:Drivers/CMSIS/Include/cmsis_gcc.h ****   #define __STATIC_FORCEINLINE                   __attribute__((always_inline)) static inline
  51:Drivers/CMSIS/Include/cmsis_gcc.h **** #endif                                           
  52:Drivers/CMSIS/Include/cmsis_gcc.h **** #ifndef   __NO_RETURN
  53:Drivers/CMSIS/Include/cmsis_gcc.h ****   #define __NO_RETURN                            __attribute__((__noreturn__))
  54:Drivers/CMSIS/Include/cmsis_gcc.h **** #endif
  55:Drivers/CMSIS/Include/cmsis_gcc.h **** #ifndef   __USED
  56:Drivers/CMSIS/Include/cmsis_gcc.h ****   #define __USED                                 __attribute__((used))
  57:Drivers/CMSIS/Include/cmsis_gcc.h **** #endif
  58:Drivers/CMSIS/Include/cmsis_gcc.h **** #ifndef   __WEAK
  59:Drivers/CMSIS/Include/cmsis_gcc.h ****   #define __WEAK                                 __attribute__((weak))
  60:Drivers/CMSIS/Include/cmsis_gcc.h **** #endif
  61:Drivers/CMSIS/Include/cmsis_gcc.h **** #ifndef   __PACKED
  62:Drivers/CMSIS/Include/cmsis_gcc.h ****   #define __PACKED                               __attribute__((packed, aligned(1)))
  63:Drivers/CMSIS/Include/cmsis_gcc.h **** #endif
  64:Drivers/CMSIS/Include/cmsis_gcc.h **** #ifndef   __PACKED_STRUCT
  65:Drivers/CMSIS/Include/cmsis_gcc.h ****   #define __PACKED_STRUCT                        struct __attribute__((packed, aligned(1)))
  66:Drivers/CMSIS/Include/cmsis_gcc.h **** #endif
  67:Drivers/CMSIS/Include/cmsis_gcc.h **** #ifndef   __PACKED_UNION
  68:Drivers/CMSIS/Include/cmsis_gcc.h ****   #define __PACKED_UNION                         union __attribute__((packed, aligned(1)))
  69:Drivers/CMSIS/Include/cmsis_gcc.h **** #endif
  70:Drivers/CMSIS/Include/cmsis_gcc.h **** #ifndef   __UNALIGNED_UINT32        /* deprecated */
  71:Drivers/CMSIS/Include/cmsis_gcc.h ****   #pragma GCC diagnostic push
  72:Drivers/CMSIS/Include/cmsis_gcc.h ****   #pragma GCC diagnostic ignored "-Wpacked"
  73:Drivers/CMSIS/Include/cmsis_gcc.h ****   #pragma GCC diagnostic ignored "-Wattributes"
  74:Drivers/CMSIS/Include/cmsis_gcc.h ****   struct __attribute__((packed)) T_UINT32 { uint32_t v; };
  75:Drivers/CMSIS/Include/cmsis_gcc.h ****   #pragma GCC diagnostic pop
  76:Drivers/CMSIS/Include/cmsis_gcc.h ****   #define __UNALIGNED_UINT32(x)                  (((struct T_UINT32 *)(x))->v)
  77:Drivers/CMSIS/Include/cmsis_gcc.h **** #endif
  78:Drivers/CMSIS/Include/cmsis_gcc.h **** #ifndef   __UNALIGNED_UINT16_WRITE
  79:Drivers/CMSIS/Include/cmsis_gcc.h ****   #pragma GCC diagnostic push
  80:Drivers/CMSIS/Include/cmsis_gcc.h ****   #pragma GCC diagnostic ignored "-Wpacked"
  81:Drivers/CMSIS/Include/cmsis_gcc.h ****   #pragma GCC diagnostic ignored "-Wattributes"
  82:Drivers/CMSIS/Include/cmsis_gcc.h ****   __PACKED_STRUCT T_UINT16_WRITE { uint16_t v; };
ARM GAS  C:\Users\User\AppData\Local\Temp\cc4wfuap.s 			page 6


  83:Drivers/CMSIS/Include/cmsis_gcc.h ****   #pragma GCC diagnostic pop
  84:Drivers/CMSIS/Include/cmsis_gcc.h ****   #define __UNALIGNED_UINT16_WRITE(addr, val)    (void)((((struct T_UINT16_WRITE *)(void *)(addr))-
  85:Drivers/CMSIS/Include/cmsis_gcc.h **** #endif
  86:Drivers/CMSIS/Include/cmsis_gcc.h **** #ifndef   __UNALIGNED_UINT16_READ
  87:Drivers/CMSIS/Include/cmsis_gcc.h ****   #pragma GCC diagnostic push
  88:Drivers/CMSIS/Include/cmsis_gcc.h ****   #pragma GCC diagnostic ignored "-Wpacked"
  89:Drivers/CMSIS/Include/cmsis_gcc.h ****   #pragma GCC diagnostic ignored "-Wattributes"
  90:Drivers/CMSIS/Include/cmsis_gcc.h ****   __PACKED_STRUCT T_UINT16_READ { uint16_t v; };
  91:Drivers/CMSIS/Include/cmsis_gcc.h ****   #pragma GCC diagnostic pop
  92:Drivers/CMSIS/Include/cmsis_gcc.h ****   #define __UNALIGNED_UINT16_READ(addr)          (((const struct T_UINT16_READ *)(const void *)(add
  93:Drivers/CMSIS/Include/cmsis_gcc.h **** #endif
  94:Drivers/CMSIS/Include/cmsis_gcc.h **** #ifndef   __UNALIGNED_UINT32_WRITE
  95:Drivers/CMSIS/Include/cmsis_gcc.h ****   #pragma GCC diagnostic push
  96:Drivers/CMSIS/Include/cmsis_gcc.h ****   #pragma GCC diagnostic ignored "-Wpacked"
  97:Drivers/CMSIS/Include/cmsis_gcc.h ****   #pragma GCC diagnostic ignored "-Wattributes"
  98:Drivers/CMSIS/Include/cmsis_gcc.h ****   __PACKED_STRUCT T_UINT32_WRITE { uint32_t v; };
  99:Drivers/CMSIS/Include/cmsis_gcc.h ****   #pragma GCC diagnostic pop
 100:Drivers/CMSIS/Include/cmsis_gcc.h ****   #define __UNALIGNED_UINT32_WRITE(addr, val)    (void)((((struct T_UINT32_WRITE *)(void *)(addr))-
 101:Drivers/CMSIS/Include/cmsis_gcc.h **** #endif
 102:Drivers/CMSIS/Include/cmsis_gcc.h **** #ifndef   __UNALIGNED_UINT32_READ
 103:Drivers/CMSIS/Include/cmsis_gcc.h ****   #pragma GCC diagnostic push
 104:Drivers/CMSIS/Include/cmsis_gcc.h ****   #pragma GCC diagnostic ignored "-Wpacked"
 105:Drivers/CMSIS/Include/cmsis_gcc.h ****   #pragma GCC diagnostic ignored "-Wattributes"
 106:Drivers/CMSIS/Include/cmsis_gcc.h ****   __PACKED_STRUCT T_UINT32_READ { uint32_t v; };
 107:Drivers/CMSIS/Include/cmsis_gcc.h ****   #pragma GCC diagnostic pop
 108:Drivers/CMSIS/Include/cmsis_gcc.h ****   #define __UNALIGNED_UINT32_READ(addr)          (((const struct T_UINT32_READ *)(const void *)(add
 109:Drivers/CMSIS/Include/cmsis_gcc.h **** #endif
 110:Drivers/CMSIS/Include/cmsis_gcc.h **** #ifndef   __ALIGNED
 111:Drivers/CMSIS/Include/cmsis_gcc.h ****   #define __ALIGNED(x)                           __attribute__((aligned(x)))
 112:Drivers/CMSIS/Include/cmsis_gcc.h **** #endif
 113:Drivers/CMSIS/Include/cmsis_gcc.h **** #ifndef   __RESTRICT
 114:Drivers/CMSIS/Include/cmsis_gcc.h ****   #define __RESTRICT                             __restrict
 115:Drivers/CMSIS/Include/cmsis_gcc.h **** #endif
 116:Drivers/CMSIS/Include/cmsis_gcc.h **** 
 117:Drivers/CMSIS/Include/cmsis_gcc.h **** 
 118:Drivers/CMSIS/Include/cmsis_gcc.h **** /* ###########################  Core Function Access  ########################### */
 119:Drivers/CMSIS/Include/cmsis_gcc.h **** /** \ingroup  CMSIS_Core_FunctionInterface
 120:Drivers/CMSIS/Include/cmsis_gcc.h ****     \defgroup CMSIS_Core_RegAccFunctions CMSIS Core Register Access Functions
 121:Drivers/CMSIS/Include/cmsis_gcc.h ****   @{
 122:Drivers/CMSIS/Include/cmsis_gcc.h ****  */
 123:Drivers/CMSIS/Include/cmsis_gcc.h **** 
 124:Drivers/CMSIS/Include/cmsis_gcc.h **** /**
 125:Drivers/CMSIS/Include/cmsis_gcc.h ****   \brief   Enable IRQ Interrupts
 126:Drivers/CMSIS/Include/cmsis_gcc.h ****   \details Enables IRQ interrupts by clearing the I-bit in the CPSR.
 127:Drivers/CMSIS/Include/cmsis_gcc.h ****            Can only be executed in Privileged modes.
 128:Drivers/CMSIS/Include/cmsis_gcc.h ****  */
 129:Drivers/CMSIS/Include/cmsis_gcc.h **** __STATIC_FORCEINLINE void __enable_irq(void)
 130:Drivers/CMSIS/Include/cmsis_gcc.h **** {
 131:Drivers/CMSIS/Include/cmsis_gcc.h ****   __ASM volatile ("cpsie i" : : : "memory");
 132:Drivers/CMSIS/Include/cmsis_gcc.h **** }
 133:Drivers/CMSIS/Include/cmsis_gcc.h **** 
 134:Drivers/CMSIS/Include/cmsis_gcc.h **** 
 135:Drivers/CMSIS/Include/cmsis_gcc.h **** /**
 136:Drivers/CMSIS/Include/cmsis_gcc.h ****   \brief   Disable IRQ Interrupts
 137:Drivers/CMSIS/Include/cmsis_gcc.h ****   \details Disables IRQ interrupts by setting the I-bit in the CPSR.
 138:Drivers/CMSIS/Include/cmsis_gcc.h ****            Can only be executed in Privileged modes.
 139:Drivers/CMSIS/Include/cmsis_gcc.h ****  */
ARM GAS  C:\Users\User\AppData\Local\Temp\cc4wfuap.s 			page 7


 140:Drivers/CMSIS/Include/cmsis_gcc.h **** __STATIC_FORCEINLINE void __disable_irq(void)
 141:Drivers/CMSIS/Include/cmsis_gcc.h **** {
 142:Drivers/CMSIS/Include/cmsis_gcc.h ****   __ASM volatile ("cpsid i" : : : "memory");
  37              		.loc 2 142 0
  38              		.syntax unified
  39              	@ 142 "Drivers/CMSIS/Include/cmsis_gcc.h" 1
  40 0000 72B6     		cpsid i
  41              	@ 0 "" 2
  42              		.thumb
  43              		.syntax unified
  44              	.L2:
  45 0002 FEE7     		b	.L2
  46              	.LBE5:
  47              	.LBE4:
  48              		.cfi_endproc
  49              	.LFE136:
  51              		.section	.text.SystemClock_Config,"ax",%progbits
  52              		.align	1
  53              		.global	SystemClock_Config
  54              		.syntax unified
  55              		.thumb
  56              		.thumb_func
  57              		.fpu fpv4-sp-d16
  59              	SystemClock_Config:
  60              	.LFB135:
 119:Core/Src/main.c ****   RCC_OscInitTypeDef RCC_OscInitStruct = {0};
  61              		.loc 1 119 0
  62              		.cfi_startproc
  63              		@ args = 0, pretend = 0, frame = 80
  64              		@ frame_needed = 0, uses_anonymous_args = 0
  65 0000 00B5     		push	{lr}
  66              	.LCFI0:
  67              		.cfi_def_cfa_offset 4
  68              		.cfi_offset 14, -4
  69 0002 95B0     		sub	sp, sp, #84
  70              	.LCFI1:
  71              		.cfi_def_cfa_offset 88
 120:Core/Src/main.c ****   RCC_ClkInitTypeDef RCC_ClkInitStruct = {0};
  72              		.loc 1 120 0
  73 0004 3022     		movs	r2, #48
  74 0006 0021     		movs	r1, #0
  75 0008 08A8     		add	r0, sp, #32
  76 000a FFF7FEFF 		bl	memset
  77              	.LVL0:
 121:Core/Src/main.c **** 
  78              		.loc 1 121 0
  79 000e 0023     		movs	r3, #0
  80 0010 0393     		str	r3, [sp, #12]
  81 0012 0493     		str	r3, [sp, #16]
  82 0014 0593     		str	r3, [sp, #20]
  83 0016 0693     		str	r3, [sp, #24]
  84 0018 0793     		str	r3, [sp, #28]
  85              	.LBB6:
 125:Core/Src/main.c ****   __HAL_PWR_VOLTAGESCALING_CONFIG(PWR_REGULATOR_VOLTAGE_SCALE1);
  86              		.loc 1 125 0
  87 001a 0193     		str	r3, [sp, #4]
  88 001c 1F4A     		ldr	r2, .L9
ARM GAS  C:\Users\User\AppData\Local\Temp\cc4wfuap.s 			page 8


  89 001e 116C     		ldr	r1, [r2, #64]
  90 0020 41F08051 		orr	r1, r1, #268435456
  91 0024 1164     		str	r1, [r2, #64]
  92 0026 126C     		ldr	r2, [r2, #64]
  93 0028 02F08052 		and	r2, r2, #268435456
  94 002c 0192     		str	r2, [sp, #4]
  95 002e 019A     		ldr	r2, [sp, #4]
  96              	.LBE6:
  97              	.LBB7:
 126:Core/Src/main.c ****   /** Initializes the RCC Oscillators according to the specified parameters
  98              		.loc 1 126 0
  99 0030 0293     		str	r3, [sp, #8]
 100 0032 1B4B     		ldr	r3, .L9+4
 101 0034 1A68     		ldr	r2, [r3]
 102 0036 42F48042 		orr	r2, r2, #16384
 103 003a 1A60     		str	r2, [r3]
 104 003c 1B68     		ldr	r3, [r3]
 105 003e 03F48043 		and	r3, r3, #16384
 106 0042 0293     		str	r3, [sp, #8]
 107 0044 029B     		ldr	r3, [sp, #8]
 108              	.LBE7:
 130:Core/Src/main.c ****   RCC_OscInitStruct.HSEState = RCC_HSE_ON;
 109              		.loc 1 130 0
 110 0046 0323     		movs	r3, #3
 111 0048 0893     		str	r3, [sp, #32]
 131:Core/Src/main.c ****   RCC_OscInitStruct.HSIState = RCC_HSI_ON;
 112              		.loc 1 131 0
 113 004a 4FF48033 		mov	r3, #65536
 114 004e 0993     		str	r3, [sp, #36]
 132:Core/Src/main.c ****   RCC_OscInitStruct.HSICalibrationValue = RCC_HSICALIBRATION_DEFAULT;
 115              		.loc 1 132 0
 116 0050 0123     		movs	r3, #1
 117 0052 0B93     		str	r3, [sp, #44]
 133:Core/Src/main.c ****   RCC_OscInitStruct.PLL.PLLState = RCC_PLL_ON;
 118              		.loc 1 133 0
 119 0054 1023     		movs	r3, #16
 120 0056 0C93     		str	r3, [sp, #48]
 134:Core/Src/main.c ****   RCC_OscInitStruct.PLL.PLLSource = RCC_PLLSOURCE_HSE;
 121              		.loc 1 134 0
 122 0058 0223     		movs	r3, #2
 123 005a 0E93     		str	r3, [sp, #56]
 135:Core/Src/main.c ****   RCC_OscInitStruct.PLL.PLLM = 15;
 124              		.loc 1 135 0
 125 005c 4FF48002 		mov	r2, #4194304
 126 0060 0F92     		str	r2, [sp, #60]
 136:Core/Src/main.c ****   RCC_OscInitStruct.PLL.PLLN = 144;
 127              		.loc 1 136 0
 128 0062 0F22     		movs	r2, #15
 129 0064 1092     		str	r2, [sp, #64]
 137:Core/Src/main.c ****   RCC_OscInitStruct.PLL.PLLP = RCC_PLLP_DIV2;
 130              		.loc 1 137 0
 131 0066 9022     		movs	r2, #144
 132 0068 1192     		str	r2, [sp, #68]
 138:Core/Src/main.c ****   RCC_OscInitStruct.PLL.PLLQ = 5;
 133              		.loc 1 138 0
 134 006a 1293     		str	r3, [sp, #72]
 139:Core/Src/main.c ****   if (HAL_RCC_OscConfig(&RCC_OscInitStruct) != HAL_OK)
ARM GAS  C:\Users\User\AppData\Local\Temp\cc4wfuap.s 			page 9


 135              		.loc 1 139 0
 136 006c 0523     		movs	r3, #5
 137 006e 1393     		str	r3, [sp, #76]
 140:Core/Src/main.c ****   {
 138              		.loc 1 140 0
 139 0070 08A8     		add	r0, sp, #32
 140 0072 FFF7FEFF 		bl	HAL_RCC_OscConfig
 141              	.LVL1:
 142 0076 68B9     		cbnz	r0, .L7
 146:Core/Src/main.c ****                               |RCC_CLOCKTYPE_PCLK1|RCC_CLOCKTYPE_PCLK2;
 143              		.loc 1 146 0
 144 0078 0F23     		movs	r3, #15
 145 007a 0393     		str	r3, [sp, #12]
 148:Core/Src/main.c ****   RCC_ClkInitStruct.AHBCLKDivider = RCC_SYSCLK_DIV1;
 146              		.loc 1 148 0
 147 007c 0021     		movs	r1, #0
 148 007e 0491     		str	r1, [sp, #16]
 149:Core/Src/main.c ****   RCC_ClkInitStruct.APB1CLKDivider = RCC_HCLK_DIV1;
 149              		.loc 1 149 0
 150 0080 0591     		str	r1, [sp, #20]
 150:Core/Src/main.c ****   RCC_ClkInitStruct.APB2CLKDivider = RCC_HCLK_DIV1;
 151              		.loc 1 150 0
 152 0082 0691     		str	r1, [sp, #24]
 151:Core/Src/main.c **** 
 153              		.loc 1 151 0
 154 0084 0791     		str	r1, [sp, #28]
 153:Core/Src/main.c ****   {
 155              		.loc 1 153 0
 156 0086 03A8     		add	r0, sp, #12
 157 0088 FFF7FEFF 		bl	HAL_RCC_ClockConfig
 158              	.LVL2:
 159 008c 20B9     		cbnz	r0, .L8
 157:Core/Src/main.c **** 
 160              		.loc 1 157 0
 161 008e 15B0     		add	sp, sp, #84
 162              	.LCFI2:
 163              		.cfi_remember_state
 164              		.cfi_def_cfa_offset 4
 165              		@ sp needed
 166 0090 5DF804FB 		ldr	pc, [sp], #4
 167              	.L7:
 168              	.LCFI3:
 169              		.cfi_restore_state
 142:Core/Src/main.c ****   }
 170              		.loc 1 142 0
 171 0094 FFF7FEFF 		bl	Error_Handler
 172              	.LVL3:
 173              	.L8:
 155:Core/Src/main.c ****   }
 174              		.loc 1 155 0
 175 0098 FFF7FEFF 		bl	Error_Handler
 176              	.LVL4:
 177              	.L10:
 178              		.align	2
 179              	.L9:
 180 009c 00380240 		.word	1073887232
 181 00a0 00700040 		.word	1073770496
ARM GAS  C:\Users\User\AppData\Local\Temp\cc4wfuap.s 			page 10


 182              		.cfi_endproc
 183              	.LFE135:
 185              		.section	.text.main,"ax",%progbits
 186              		.align	1
 187              		.global	main
 188              		.syntax unified
 189              		.thumb
 190              		.thumb_func
 191              		.fpu fpv4-sp-d16
 193              	main:
 194              	.LFB134:
  67:Core/Src/main.c ****   /* USER CODE BEGIN 1 */
 195              		.loc 1 67 0
 196              		.cfi_startproc
 197              		@ Volatile: function does not return.
 198              		@ args = 0, pretend = 0, frame = 8
 199              		@ frame_needed = 0, uses_anonymous_args = 0
 200 0000 00B5     		push	{lr}
 201              	.LCFI4:
 202              		.cfi_def_cfa_offset 4
 203              		.cfi_offset 14, -4
 204 0002 83B0     		sub	sp, sp, #12
 205              	.LCFI5:
 206              		.cfi_def_cfa_offset 16
  75:Core/Src/main.c **** 
 207              		.loc 1 75 0
 208 0004 FFF7FEFF 		bl	HAL_Init
 209              	.LVL5:
  82:Core/Src/main.c **** 
 210              		.loc 1 82 0
 211 0008 FFF7FEFF 		bl	SystemClock_Config
 212              	.LVL6:
  89:Core/Src/main.c ****   MX_USB_DEVICE_Init();
 213              		.loc 1 89 0
 214 000c FFF7FEFF 		bl	MX_GPIO_Init
 215              	.LVL7:
  90:Core/Src/main.c ****   /* USER CODE BEGIN 2 */
 216              		.loc 1 90 0
 217 0010 FFF7FEFF 		bl	MX_USB_DEVICE_Init
 218              	.LVL8:
  97:Core/Src/main.c ****   while (1)
 219              		.loc 1 97 0
 220 0014 5523     		movs	r3, #85
 221 0016 8DF80430 		strb	r3, [sp, #4]
 222              	.L12:
 101:Core/Src/main.c ****     HAL_Delay(100);
 223              		.loc 1 101 0 discriminator 1
 224 001a 0F4C     		ldr	r4, .L14
 225 001c 4FF40041 		mov	r1, #32768
 226 0020 2046     		mov	r0, r4
 227 0022 FFF7FEFF 		bl	HAL_GPIO_TogglePin
 228              	.LVL9:
 102:Core/Src/main.c ****     HAL_GPIO_TogglePin(GPIOD, GPIO_PIN_14);
 229              		.loc 1 102 0 discriminator 1
 230 0026 6420     		movs	r0, #100
 231 0028 FFF7FEFF 		bl	HAL_Delay
 232              	.LVL10:
ARM GAS  C:\Users\User\AppData\Local\Temp\cc4wfuap.s 			page 11


 103:Core/Src/main.c ****     HAL_Delay(100);
 233              		.loc 1 103 0 discriminator 1
 234 002c 4FF48041 		mov	r1, #16384
 235 0030 2046     		mov	r0, r4
 236 0032 FFF7FEFF 		bl	HAL_GPIO_TogglePin
 237              	.LVL11:
 104:Core/Src/main.c ****     HAL_GPIO_TogglePin(GPIOD, GPIO_PIN_13);
 238              		.loc 1 104 0 discriminator 1
 239 0036 6420     		movs	r0, #100
 240 0038 FFF7FEFF 		bl	HAL_Delay
 241              	.LVL12:
 105:Core/Src/main.c ****     HAL_Delay(100);
 242              		.loc 1 105 0 discriminator 1
 243 003c 4FF40051 		mov	r1, #8192
 244 0040 2046     		mov	r0, r4
 245 0042 FFF7FEFF 		bl	HAL_GPIO_TogglePin
 246              	.LVL13:
 106:Core/Src/main.c ****     CDC_Transmit_FS(buffer, sizeof(buffer));
 247              		.loc 1 106 0 discriminator 1
 248 0046 6420     		movs	r0, #100
 249 0048 FFF7FEFF 		bl	HAL_Delay
 250              	.LVL14:
 107:Core/Src/main.c ****     // HAL_Delay(1000);
 251              		.loc 1 107 0 discriminator 1
 252 004c 0121     		movs	r1, #1
 253 004e 01A8     		add	r0, sp, #4
 254 0050 FFF7FEFF 		bl	CDC_Transmit_FS
 255              	.LVL15:
 256 0054 E1E7     		b	.L12
 257              	.L15:
 258 0056 00BF     		.align	2
 259              	.L14:
 260 0058 000C0240 		.word	1073875968
 261              		.cfi_endproc
 262              	.LFE134:
 264              		.text
 265              	.Letext0:
 266              		.file 3 "d:\\stm32_project\\tool\\7-2018-q2-update\\arm-none-eabi\\include\\machine\\_default_type
 267              		.file 4 "d:\\stm32_project\\tool\\7-2018-q2-update\\arm-none-eabi\\include\\sys\\_stdint.h"
 268              		.file 5 "Drivers/CMSIS/Include/core_cm4.h"
 269              		.file 6 "Drivers/CMSIS/Device/ST/STM32F4xx/Include/system_stm32f4xx.h"
 270              		.file 7 "Drivers/CMSIS/Device/ST/STM32F4xx/Include/stm32f407xx.h"
 271              		.file 8 "Drivers/STM32F4xx_HAL_Driver/Inc/stm32f4xx_hal_rcc_ex.h"
 272              		.file 9 "Drivers/STM32F4xx_HAL_Driver/Inc/stm32f4xx_hal_rcc.h"
 273              		.file 10 "Drivers/STM32F4xx_HAL_Driver/Inc/stm32f4xx_hal_def.h"
 274              		.file 11 "Drivers/STM32F4xx_HAL_Driver/Inc/stm32f4xx_hal.h"
 275              		.file 12 "d:\\stm32_project\\tool\\7-2018-q2-update\\arm-none-eabi\\include\\sys\\lock.h"
 276              		.file 13 "d:\\stm32_project\\tool\\7-2018-q2-update\\arm-none-eabi\\include\\sys\\_types.h"
 277              		.file 14 "d:\\stm32_project\\tool\\7-2018-q2-update\\lib\\gcc\\arm-none-eabi\\7.3.1\\include\\stdd
 278              		.file 15 "d:\\stm32_project\\tool\\7-2018-q2-update\\arm-none-eabi\\include\\sys\\reent.h"
 279              		.file 16 "d:\\stm32_project\\tool\\7-2018-q2-update\\arm-none-eabi\\include\\stdlib.h"
 280              		.file 17 "Core/Inc/gpio.h"
 281              		.file 18 "USB_DEVICE/App/usb_device.h"
 282              		.file 19 "Drivers/STM32F4xx_HAL_Driver/Inc/stm32f4xx_hal_gpio.h"
 283              		.file 20 "<built-in>"
ARM GAS  C:\Users\User\AppData\Local\Temp\cc4wfuap.s 			page 12

