ARM GAS  C:\Users\User\AppData\Local\Temp\ccTM2mx2.s 			page 1


   1              		.cpu cortex-m4
   2              		.eabi_attribute 27, 1
   3              		.eabi_attribute 28, 1
   4              		.eabi_attribute 20, 1
   5              		.eabi_attribute 21, 1
   6              		.eabi_attribute 23, 3
   7              		.eabi_attribute 24, 1
   8              		.eabi_attribute 25, 1
   9              		.eabi_attribute 26, 1
  10              		.eabi_attribute 30, 1
  11              		.eabi_attribute 34, 1
  12              		.eabi_attribute 18, 4
  13              		.file	"usbd_core.c"
  14              		.text
  15              	.Ltext0:
  16              		.cfi_sections	.debug_frame
  17              		.section	.text.USBD_Init,"ax",%progbits
  18              		.align	1
  19              		.global	USBD_Init
  20              		.syntax unified
  21              		.thumb
  22              		.thumb_func
  23              		.fpu fpv4-sp-d16
  25              	USBD_Init:
  26              	.LFB134:
  27              		.file 1 "Middlewares/ST/STM32_USB_Device_Library/Core/Src/usbd_core.c"
   1:Middlewares/ST/STM32_USB_Device_Library/Core/Src/usbd_core.c **** /**
   2:Middlewares/ST/STM32_USB_Device_Library/Core/Src/usbd_core.c ****   ******************************************************************************
   3:Middlewares/ST/STM32_USB_Device_Library/Core/Src/usbd_core.c ****   * @file    usbd_core.c
   4:Middlewares/ST/STM32_USB_Device_Library/Core/Src/usbd_core.c ****   * @author  MCD Application Team
   5:Middlewares/ST/STM32_USB_Device_Library/Core/Src/usbd_core.c ****   * @brief   This file provides all the USBD core functions.
   6:Middlewares/ST/STM32_USB_Device_Library/Core/Src/usbd_core.c ****   ******************************************************************************
   7:Middlewares/ST/STM32_USB_Device_Library/Core/Src/usbd_core.c ****   * @attention
   8:Middlewares/ST/STM32_USB_Device_Library/Core/Src/usbd_core.c ****   *
   9:Middlewares/ST/STM32_USB_Device_Library/Core/Src/usbd_core.c ****   * <h2><center>&copy; Copyright (c) 2015 STMicroelectronics.
  10:Middlewares/ST/STM32_USB_Device_Library/Core/Src/usbd_core.c ****   * All rights reserved.</center></h2>
  11:Middlewares/ST/STM32_USB_Device_Library/Core/Src/usbd_core.c ****   *
  12:Middlewares/ST/STM32_USB_Device_Library/Core/Src/usbd_core.c ****   * This software component is licensed by ST under Ultimate Liberty license
  13:Middlewares/ST/STM32_USB_Device_Library/Core/Src/usbd_core.c ****   * SLA0044, the "License"; You may not use this file except in compliance with
  14:Middlewares/ST/STM32_USB_Device_Library/Core/Src/usbd_core.c ****   * the License. You may obtain a copy of the License at:
  15:Middlewares/ST/STM32_USB_Device_Library/Core/Src/usbd_core.c ****   *                      www.st.com/SLA0044
  16:Middlewares/ST/STM32_USB_Device_Library/Core/Src/usbd_core.c ****   *
  17:Middlewares/ST/STM32_USB_Device_Library/Core/Src/usbd_core.c ****   ******************************************************************************
  18:Middlewares/ST/STM32_USB_Device_Library/Core/Src/usbd_core.c ****   */
  19:Middlewares/ST/STM32_USB_Device_Library/Core/Src/usbd_core.c **** 
  20:Middlewares/ST/STM32_USB_Device_Library/Core/Src/usbd_core.c **** /* Includes ------------------------------------------------------------------*/
  21:Middlewares/ST/STM32_USB_Device_Library/Core/Src/usbd_core.c **** #include "usbd_core.h"
  22:Middlewares/ST/STM32_USB_Device_Library/Core/Src/usbd_core.c **** 
  23:Middlewares/ST/STM32_USB_Device_Library/Core/Src/usbd_core.c **** /** @addtogroup STM32_USBD_DEVICE_LIBRARY
  24:Middlewares/ST/STM32_USB_Device_Library/Core/Src/usbd_core.c **** * @{
  25:Middlewares/ST/STM32_USB_Device_Library/Core/Src/usbd_core.c **** */
  26:Middlewares/ST/STM32_USB_Device_Library/Core/Src/usbd_core.c **** 
  27:Middlewares/ST/STM32_USB_Device_Library/Core/Src/usbd_core.c **** 
  28:Middlewares/ST/STM32_USB_Device_Library/Core/Src/usbd_core.c **** /** @defgroup USBD_CORE
  29:Middlewares/ST/STM32_USB_Device_Library/Core/Src/usbd_core.c **** * @brief usbd core module
  30:Middlewares/ST/STM32_USB_Device_Library/Core/Src/usbd_core.c **** * @{
  31:Middlewares/ST/STM32_USB_Device_Library/Core/Src/usbd_core.c **** */
ARM GAS  C:\Users\User\AppData\Local\Temp\ccTM2mx2.s 			page 2


  32:Middlewares/ST/STM32_USB_Device_Library/Core/Src/usbd_core.c **** 
  33:Middlewares/ST/STM32_USB_Device_Library/Core/Src/usbd_core.c **** /** @defgroup USBD_CORE_Private_TypesDefinitions
  34:Middlewares/ST/STM32_USB_Device_Library/Core/Src/usbd_core.c **** * @{
  35:Middlewares/ST/STM32_USB_Device_Library/Core/Src/usbd_core.c **** */
  36:Middlewares/ST/STM32_USB_Device_Library/Core/Src/usbd_core.c **** 
  37:Middlewares/ST/STM32_USB_Device_Library/Core/Src/usbd_core.c **** /**
  38:Middlewares/ST/STM32_USB_Device_Library/Core/Src/usbd_core.c **** * @}
  39:Middlewares/ST/STM32_USB_Device_Library/Core/Src/usbd_core.c **** */
  40:Middlewares/ST/STM32_USB_Device_Library/Core/Src/usbd_core.c **** 
  41:Middlewares/ST/STM32_USB_Device_Library/Core/Src/usbd_core.c **** 
  42:Middlewares/ST/STM32_USB_Device_Library/Core/Src/usbd_core.c **** /** @defgroup USBD_CORE_Private_Defines
  43:Middlewares/ST/STM32_USB_Device_Library/Core/Src/usbd_core.c **** * @{
  44:Middlewares/ST/STM32_USB_Device_Library/Core/Src/usbd_core.c **** */
  45:Middlewares/ST/STM32_USB_Device_Library/Core/Src/usbd_core.c **** 
  46:Middlewares/ST/STM32_USB_Device_Library/Core/Src/usbd_core.c **** /**
  47:Middlewares/ST/STM32_USB_Device_Library/Core/Src/usbd_core.c **** * @}
  48:Middlewares/ST/STM32_USB_Device_Library/Core/Src/usbd_core.c **** */
  49:Middlewares/ST/STM32_USB_Device_Library/Core/Src/usbd_core.c **** 
  50:Middlewares/ST/STM32_USB_Device_Library/Core/Src/usbd_core.c **** 
  51:Middlewares/ST/STM32_USB_Device_Library/Core/Src/usbd_core.c **** /** @defgroup USBD_CORE_Private_Macros
  52:Middlewares/ST/STM32_USB_Device_Library/Core/Src/usbd_core.c **** * @{
  53:Middlewares/ST/STM32_USB_Device_Library/Core/Src/usbd_core.c **** */
  54:Middlewares/ST/STM32_USB_Device_Library/Core/Src/usbd_core.c **** 
  55:Middlewares/ST/STM32_USB_Device_Library/Core/Src/usbd_core.c **** /**
  56:Middlewares/ST/STM32_USB_Device_Library/Core/Src/usbd_core.c **** * @}
  57:Middlewares/ST/STM32_USB_Device_Library/Core/Src/usbd_core.c **** */
  58:Middlewares/ST/STM32_USB_Device_Library/Core/Src/usbd_core.c **** 
  59:Middlewares/ST/STM32_USB_Device_Library/Core/Src/usbd_core.c **** 
  60:Middlewares/ST/STM32_USB_Device_Library/Core/Src/usbd_core.c **** /** @defgroup USBD_CORE_Private_FunctionPrototypes
  61:Middlewares/ST/STM32_USB_Device_Library/Core/Src/usbd_core.c **** * @{
  62:Middlewares/ST/STM32_USB_Device_Library/Core/Src/usbd_core.c **** */
  63:Middlewares/ST/STM32_USB_Device_Library/Core/Src/usbd_core.c **** 
  64:Middlewares/ST/STM32_USB_Device_Library/Core/Src/usbd_core.c **** /**
  65:Middlewares/ST/STM32_USB_Device_Library/Core/Src/usbd_core.c **** * @}
  66:Middlewares/ST/STM32_USB_Device_Library/Core/Src/usbd_core.c **** */
  67:Middlewares/ST/STM32_USB_Device_Library/Core/Src/usbd_core.c **** 
  68:Middlewares/ST/STM32_USB_Device_Library/Core/Src/usbd_core.c **** /** @defgroup USBD_CORE_Private_Variables
  69:Middlewares/ST/STM32_USB_Device_Library/Core/Src/usbd_core.c **** * @{
  70:Middlewares/ST/STM32_USB_Device_Library/Core/Src/usbd_core.c **** */
  71:Middlewares/ST/STM32_USB_Device_Library/Core/Src/usbd_core.c **** 
  72:Middlewares/ST/STM32_USB_Device_Library/Core/Src/usbd_core.c **** /**
  73:Middlewares/ST/STM32_USB_Device_Library/Core/Src/usbd_core.c **** * @}
  74:Middlewares/ST/STM32_USB_Device_Library/Core/Src/usbd_core.c **** */
  75:Middlewares/ST/STM32_USB_Device_Library/Core/Src/usbd_core.c **** 
  76:Middlewares/ST/STM32_USB_Device_Library/Core/Src/usbd_core.c **** 
  77:Middlewares/ST/STM32_USB_Device_Library/Core/Src/usbd_core.c **** /** @defgroup USBD_CORE_Private_Functions
  78:Middlewares/ST/STM32_USB_Device_Library/Core/Src/usbd_core.c **** * @{
  79:Middlewares/ST/STM32_USB_Device_Library/Core/Src/usbd_core.c **** */
  80:Middlewares/ST/STM32_USB_Device_Library/Core/Src/usbd_core.c **** 
  81:Middlewares/ST/STM32_USB_Device_Library/Core/Src/usbd_core.c **** /**
  82:Middlewares/ST/STM32_USB_Device_Library/Core/Src/usbd_core.c **** * @brief  USBD_Init
  83:Middlewares/ST/STM32_USB_Device_Library/Core/Src/usbd_core.c **** *         Initializes the device stack and load the class driver
  84:Middlewares/ST/STM32_USB_Device_Library/Core/Src/usbd_core.c **** * @param  pdev: device instance
  85:Middlewares/ST/STM32_USB_Device_Library/Core/Src/usbd_core.c **** * @param  pdesc: Descriptor structure address
  86:Middlewares/ST/STM32_USB_Device_Library/Core/Src/usbd_core.c **** * @param  id: Low level core index
  87:Middlewares/ST/STM32_USB_Device_Library/Core/Src/usbd_core.c **** * @retval None
  88:Middlewares/ST/STM32_USB_Device_Library/Core/Src/usbd_core.c **** */
ARM GAS  C:\Users\User\AppData\Local\Temp\ccTM2mx2.s 			page 3


  89:Middlewares/ST/STM32_USB_Device_Library/Core/Src/usbd_core.c **** USBD_StatusTypeDef USBD_Init(USBD_HandleTypeDef *pdev,
  90:Middlewares/ST/STM32_USB_Device_Library/Core/Src/usbd_core.c ****                              USBD_DescriptorsTypeDef *pdesc, uint8_t id)
  91:Middlewares/ST/STM32_USB_Device_Library/Core/Src/usbd_core.c **** {
  28              		.loc 1 91 0
  29              		.cfi_startproc
  30              		@ args = 0, pretend = 0, frame = 0
  31              		@ frame_needed = 0, uses_anonymous_args = 0
  32              	.LVL0:
  92:Middlewares/ST/STM32_USB_Device_Library/Core/Src/usbd_core.c ****   USBD_StatusTypeDef ret;
  93:Middlewares/ST/STM32_USB_Device_Library/Core/Src/usbd_core.c **** 
  94:Middlewares/ST/STM32_USB_Device_Library/Core/Src/usbd_core.c ****   /* Check whether the USB Host handle is valid */
  95:Middlewares/ST/STM32_USB_Device_Library/Core/Src/usbd_core.c ****   if (pdev == NULL)
  33              		.loc 1 95 0
  34 0000 C0B1     		cbz	r0, .L6
  91:Middlewares/ST/STM32_USB_Device_Library/Core/Src/usbd_core.c ****   USBD_StatusTypeDef ret;
  35              		.loc 1 91 0
  36 0002 08B5     		push	{r3, lr}
  37              	.LCFI0:
  38              		.cfi_def_cfa_offset 8
  39              		.cfi_offset 3, -8
  40              		.cfi_offset 14, -4
  41 0004 0346     		mov	r3, r0
  96:Middlewares/ST/STM32_USB_Device_Library/Core/Src/usbd_core.c ****   {
  97:Middlewares/ST/STM32_USB_Device_Library/Core/Src/usbd_core.c **** #if (USBD_DEBUG_LEVEL > 1U)
  98:Middlewares/ST/STM32_USB_Device_Library/Core/Src/usbd_core.c ****     USBD_ErrLog("Invalid Device handle");
  99:Middlewares/ST/STM32_USB_Device_Library/Core/Src/usbd_core.c **** #endif
 100:Middlewares/ST/STM32_USB_Device_Library/Core/Src/usbd_core.c ****     return USBD_FAIL;
 101:Middlewares/ST/STM32_USB_Device_Library/Core/Src/usbd_core.c ****   }
 102:Middlewares/ST/STM32_USB_Device_Library/Core/Src/usbd_core.c **** 
 103:Middlewares/ST/STM32_USB_Device_Library/Core/Src/usbd_core.c ****   /* Unlink previous class */
 104:Middlewares/ST/STM32_USB_Device_Library/Core/Src/usbd_core.c ****   if (pdev->pClass != NULL)
  42              		.loc 1 104 0
  43 0006 D0F8B802 		ldr	r0, [r0, #696]
  44              	.LVL1:
  45 000a 10B1     		cbz	r0, .L3
 105:Middlewares/ST/STM32_USB_Device_Library/Core/Src/usbd_core.c ****   {
 106:Middlewares/ST/STM32_USB_Device_Library/Core/Src/usbd_core.c ****     pdev->pClass = NULL;
  46              		.loc 1 106 0
  47 000c 0020     		movs	r0, #0
  48 000e C3F8B802 		str	r0, [r3, #696]
  49              	.L3:
 107:Middlewares/ST/STM32_USB_Device_Library/Core/Src/usbd_core.c ****   }
 108:Middlewares/ST/STM32_USB_Device_Library/Core/Src/usbd_core.c **** 
 109:Middlewares/ST/STM32_USB_Device_Library/Core/Src/usbd_core.c ****   if (pdev->pConfDesc != NULL)
  50              		.loc 1 109 0
  51 0012 D3F8CC02 		ldr	r0, [r3, #716]
  52 0016 10B1     		cbz	r0, .L4
 110:Middlewares/ST/STM32_USB_Device_Library/Core/Src/usbd_core.c ****   {
 111:Middlewares/ST/STM32_USB_Device_Library/Core/Src/usbd_core.c ****     pdev->pConfDesc = NULL;
  53              		.loc 1 111 0
  54 0018 0020     		movs	r0, #0
  55 001a C3F8CC02 		str	r0, [r3, #716]
  56              	.L4:
 112:Middlewares/ST/STM32_USB_Device_Library/Core/Src/usbd_core.c ****   }
 113:Middlewares/ST/STM32_USB_Device_Library/Core/Src/usbd_core.c **** 
 114:Middlewares/ST/STM32_USB_Device_Library/Core/Src/usbd_core.c ****   /* Assign USBD Descriptors */
 115:Middlewares/ST/STM32_USB_Device_Library/Core/Src/usbd_core.c ****   if (pdesc != NULL)
ARM GAS  C:\Users\User\AppData\Local\Temp\ccTM2mx2.s 			page 4


  57              		.loc 1 115 0
  58 001e 09B1     		cbz	r1, .L5
 116:Middlewares/ST/STM32_USB_Device_Library/Core/Src/usbd_core.c ****   {
 117:Middlewares/ST/STM32_USB_Device_Library/Core/Src/usbd_core.c ****     pdev->pDesc = pdesc;
  59              		.loc 1 117 0
  60 0020 C3F8B412 		str	r1, [r3, #692]
  61              	.L5:
  62 0024 1846     		mov	r0, r3
 118:Middlewares/ST/STM32_USB_Device_Library/Core/Src/usbd_core.c ****   }
 119:Middlewares/ST/STM32_USB_Device_Library/Core/Src/usbd_core.c **** 
 120:Middlewares/ST/STM32_USB_Device_Library/Core/Src/usbd_core.c ****   /* Set Device initial State */
 121:Middlewares/ST/STM32_USB_Device_Library/Core/Src/usbd_core.c ****   pdev->dev_state = USBD_STATE_DEFAULT;
  63              		.loc 1 121 0
  64 0026 0123     		movs	r3, #1
  65              	.LVL2:
  66 0028 80F89C32 		strb	r3, [r0, #668]
 122:Middlewares/ST/STM32_USB_Device_Library/Core/Src/usbd_core.c ****   pdev->id = id;
  67              		.loc 1 122 0
  68 002c 0270     		strb	r2, [r0]
 123:Middlewares/ST/STM32_USB_Device_Library/Core/Src/usbd_core.c **** 
 124:Middlewares/ST/STM32_USB_Device_Library/Core/Src/usbd_core.c ****   /* Initialize low level driver */
 125:Middlewares/ST/STM32_USB_Device_Library/Core/Src/usbd_core.c ****   ret = USBD_LL_Init(pdev);
  69              		.loc 1 125 0
  70 002e FFF7FEFF 		bl	USBD_LL_Init
  71              	.LVL3:
 126:Middlewares/ST/STM32_USB_Device_Library/Core/Src/usbd_core.c **** 
 127:Middlewares/ST/STM32_USB_Device_Library/Core/Src/usbd_core.c ****   return ret;
 128:Middlewares/ST/STM32_USB_Device_Library/Core/Src/usbd_core.c **** }
  72              		.loc 1 128 0
  73 0032 08BD     		pop	{r3, pc}
  74              	.LVL4:
  75              	.L6:
  76              	.LCFI1:
  77              		.cfi_def_cfa_offset 0
  78              		.cfi_restore 3
  79              		.cfi_restore 14
 100:Middlewares/ST/STM32_USB_Device_Library/Core/Src/usbd_core.c ****   }
  80              		.loc 1 100 0
  81 0034 0320     		movs	r0, #3
  82              	.LVL5:
  83              		.loc 1 128 0
  84 0036 7047     		bx	lr
  85              		.cfi_endproc
  86              	.LFE134:
  88              		.section	.text.USBD_DeInit,"ax",%progbits
  89              		.align	1
  90              		.global	USBD_DeInit
  91              		.syntax unified
  92              		.thumb
  93              		.thumb_func
  94              		.fpu fpv4-sp-d16
  96              	USBD_DeInit:
  97              	.LFB135:
 129:Middlewares/ST/STM32_USB_Device_Library/Core/Src/usbd_core.c **** 
 130:Middlewares/ST/STM32_USB_Device_Library/Core/Src/usbd_core.c **** /**
 131:Middlewares/ST/STM32_USB_Device_Library/Core/Src/usbd_core.c **** * @brief  USBD_DeInit
 132:Middlewares/ST/STM32_USB_Device_Library/Core/Src/usbd_core.c **** *         Re-Initialize th device library
ARM GAS  C:\Users\User\AppData\Local\Temp\ccTM2mx2.s 			page 5


 133:Middlewares/ST/STM32_USB_Device_Library/Core/Src/usbd_core.c **** * @param  pdev: device instance
 134:Middlewares/ST/STM32_USB_Device_Library/Core/Src/usbd_core.c **** * @retval status: status
 135:Middlewares/ST/STM32_USB_Device_Library/Core/Src/usbd_core.c **** */
 136:Middlewares/ST/STM32_USB_Device_Library/Core/Src/usbd_core.c **** USBD_StatusTypeDef USBD_DeInit(USBD_HandleTypeDef *pdev)
 137:Middlewares/ST/STM32_USB_Device_Library/Core/Src/usbd_core.c **** {
  98              		.loc 1 137 0
  99              		.cfi_startproc
 100              		@ args = 0, pretend = 0, frame = 0
 101              		@ frame_needed = 0, uses_anonymous_args = 0
 102              	.LVL6:
 103 0000 10B5     		push	{r4, lr}
 104              	.LCFI2:
 105              		.cfi_def_cfa_offset 8
 106              		.cfi_offset 4, -8
 107              		.cfi_offset 14, -4
 108 0002 0446     		mov	r4, r0
 138:Middlewares/ST/STM32_USB_Device_Library/Core/Src/usbd_core.c ****   USBD_StatusTypeDef ret;
 139:Middlewares/ST/STM32_USB_Device_Library/Core/Src/usbd_core.c **** 
 140:Middlewares/ST/STM32_USB_Device_Library/Core/Src/usbd_core.c ****   /* Set Default State */
 141:Middlewares/ST/STM32_USB_Device_Library/Core/Src/usbd_core.c ****   pdev->dev_state = USBD_STATE_DEFAULT;
 109              		.loc 1 141 0
 110 0004 0123     		movs	r3, #1
 111 0006 80F89C32 		strb	r3, [r0, #668]
 142:Middlewares/ST/STM32_USB_Device_Library/Core/Src/usbd_core.c **** 
 143:Middlewares/ST/STM32_USB_Device_Library/Core/Src/usbd_core.c ****   /* Free Class Resources */
 144:Middlewares/ST/STM32_USB_Device_Library/Core/Src/usbd_core.c ****   if (pdev->pClass != NULL)
 112              		.loc 1 144 0
 113 000a D0F8B832 		ldr	r3, [r0, #696]
 114 000e 13B1     		cbz	r3, .L12
 145:Middlewares/ST/STM32_USB_Device_Library/Core/Src/usbd_core.c ****   {
 146:Middlewares/ST/STM32_USB_Device_Library/Core/Src/usbd_core.c ****     pdev->pClass->DeInit(pdev, (uint8_t)pdev->dev_config);
 115              		.loc 1 146 0
 116 0010 5B68     		ldr	r3, [r3, #4]
 117 0012 0179     		ldrb	r1, [r0, #4]	@ zero_extendqisi2
 118 0014 9847     		blx	r3
 119              	.LVL7:
 120              	.L12:
 147:Middlewares/ST/STM32_USB_Device_Library/Core/Src/usbd_core.c ****   }
 148:Middlewares/ST/STM32_USB_Device_Library/Core/Src/usbd_core.c **** 
 149:Middlewares/ST/STM32_USB_Device_Library/Core/Src/usbd_core.c ****   if (pdev->pConfDesc != NULL)
 121              		.loc 1 149 0
 122 0016 D4F8CC32 		ldr	r3, [r4, #716]
 123 001a 13B1     		cbz	r3, .L13
 150:Middlewares/ST/STM32_USB_Device_Library/Core/Src/usbd_core.c ****   {
 151:Middlewares/ST/STM32_USB_Device_Library/Core/Src/usbd_core.c ****     pdev->pConfDesc = NULL;
 124              		.loc 1 151 0
 125 001c 0023     		movs	r3, #0
 126 001e C4F8CC32 		str	r3, [r4, #716]
 127              	.L13:
 152:Middlewares/ST/STM32_USB_Device_Library/Core/Src/usbd_core.c ****   }
 153:Middlewares/ST/STM32_USB_Device_Library/Core/Src/usbd_core.c **** 
 154:Middlewares/ST/STM32_USB_Device_Library/Core/Src/usbd_core.c ****   /* Stop the low level driver  */
 155:Middlewares/ST/STM32_USB_Device_Library/Core/Src/usbd_core.c ****   ret = USBD_LL_Stop(pdev);
 128              		.loc 1 155 0
 129 0022 2046     		mov	r0, r4
 130 0024 FFF7FEFF 		bl	USBD_LL_Stop
 131              	.LVL8:
ARM GAS  C:\Users\User\AppData\Local\Temp\ccTM2mx2.s 			page 6


 156:Middlewares/ST/STM32_USB_Device_Library/Core/Src/usbd_core.c **** 
 157:Middlewares/ST/STM32_USB_Device_Library/Core/Src/usbd_core.c ****   if (ret != USBD_OK)
 132              		.loc 1 157 0
 133 0028 0346     		mov	r3, r0
 134 002a 08B1     		cbz	r0, .L16
 135              	.LVL9:
 136              	.L14:
 158:Middlewares/ST/STM32_USB_Device_Library/Core/Src/usbd_core.c ****   {
 159:Middlewares/ST/STM32_USB_Device_Library/Core/Src/usbd_core.c ****     return ret;
 160:Middlewares/ST/STM32_USB_Device_Library/Core/Src/usbd_core.c ****   }
 161:Middlewares/ST/STM32_USB_Device_Library/Core/Src/usbd_core.c **** 
 162:Middlewares/ST/STM32_USB_Device_Library/Core/Src/usbd_core.c ****   /* Initialize low level driver */
 163:Middlewares/ST/STM32_USB_Device_Library/Core/Src/usbd_core.c ****   ret = USBD_LL_DeInit(pdev);
 164:Middlewares/ST/STM32_USB_Device_Library/Core/Src/usbd_core.c **** 
 165:Middlewares/ST/STM32_USB_Device_Library/Core/Src/usbd_core.c ****   return ret;
 166:Middlewares/ST/STM32_USB_Device_Library/Core/Src/usbd_core.c **** }
 137              		.loc 1 166 0
 138 002c 1846     		mov	r0, r3
 139 002e 10BD     		pop	{r4, pc}
 140              	.LVL10:
 141              	.L16:
 163:Middlewares/ST/STM32_USB_Device_Library/Core/Src/usbd_core.c **** 
 142              		.loc 1 163 0
 143 0030 2046     		mov	r0, r4
 144              	.LVL11:
 145 0032 FFF7FEFF 		bl	USBD_LL_DeInit
 146              	.LVL12:
 147 0036 0346     		mov	r3, r0
 148              	.LVL13:
 165:Middlewares/ST/STM32_USB_Device_Library/Core/Src/usbd_core.c **** }
 149              		.loc 1 165 0
 150 0038 F8E7     		b	.L14
 151              		.cfi_endproc
 152              	.LFE135:
 154              		.section	.text.USBD_RegisterClass,"ax",%progbits
 155              		.align	1
 156              		.global	USBD_RegisterClass
 157              		.syntax unified
 158              		.thumb
 159              		.thumb_func
 160              		.fpu fpv4-sp-d16
 162              	USBD_RegisterClass:
 163              	.LFB136:
 167:Middlewares/ST/STM32_USB_Device_Library/Core/Src/usbd_core.c **** 
 168:Middlewares/ST/STM32_USB_Device_Library/Core/Src/usbd_core.c **** /**
 169:Middlewares/ST/STM32_USB_Device_Library/Core/Src/usbd_core.c ****   * @brief  USBD_RegisterClass
 170:Middlewares/ST/STM32_USB_Device_Library/Core/Src/usbd_core.c ****   *         Link class driver to Device Core.
 171:Middlewares/ST/STM32_USB_Device_Library/Core/Src/usbd_core.c ****   * @param  pDevice : Device Handle
 172:Middlewares/ST/STM32_USB_Device_Library/Core/Src/usbd_core.c ****   * @param  pclass: Class handle
 173:Middlewares/ST/STM32_USB_Device_Library/Core/Src/usbd_core.c ****   * @retval USBD Status
 174:Middlewares/ST/STM32_USB_Device_Library/Core/Src/usbd_core.c ****   */
 175:Middlewares/ST/STM32_USB_Device_Library/Core/Src/usbd_core.c **** USBD_StatusTypeDef USBD_RegisterClass(USBD_HandleTypeDef *pdev, USBD_ClassTypeDef *pclass)
 176:Middlewares/ST/STM32_USB_Device_Library/Core/Src/usbd_core.c **** {
 164              		.loc 1 176 0
 165              		.cfi_startproc
 166              		@ args = 0, pretend = 0, frame = 8
 167              		@ frame_needed = 0, uses_anonymous_args = 0
ARM GAS  C:\Users\User\AppData\Local\Temp\ccTM2mx2.s 			page 7


 168              	.LVL14:
 169 0000 10B5     		push	{r4, lr}
 170              	.LCFI3:
 171              		.cfi_def_cfa_offset 8
 172              		.cfi_offset 4, -8
 173              		.cfi_offset 14, -4
 174 0002 82B0     		sub	sp, sp, #8
 175              	.LCFI4:
 176              		.cfi_def_cfa_offset 16
 177:Middlewares/ST/STM32_USB_Device_Library/Core/Src/usbd_core.c ****   uint16_t len = 0U;
 177              		.loc 1 177 0
 178 0004 0023     		movs	r3, #0
 179 0006 ADF80630 		strh	r3, [sp, #6]	@ movhi
 178:Middlewares/ST/STM32_USB_Device_Library/Core/Src/usbd_core.c **** 
 179:Middlewares/ST/STM32_USB_Device_Library/Core/Src/usbd_core.c ****   if (pclass == NULL)
 180              		.loc 1 179 0
 181 000a 59B1     		cbz	r1, .L19
 182 000c 0446     		mov	r4, r0
 180:Middlewares/ST/STM32_USB_Device_Library/Core/Src/usbd_core.c ****   {
 181:Middlewares/ST/STM32_USB_Device_Library/Core/Src/usbd_core.c **** #if (USBD_DEBUG_LEVEL > 1U)
 182:Middlewares/ST/STM32_USB_Device_Library/Core/Src/usbd_core.c ****     USBD_ErrLog("Invalid Class handle");
 183:Middlewares/ST/STM32_USB_Device_Library/Core/Src/usbd_core.c **** #endif
 184:Middlewares/ST/STM32_USB_Device_Library/Core/Src/usbd_core.c ****     return USBD_FAIL;
 185:Middlewares/ST/STM32_USB_Device_Library/Core/Src/usbd_core.c ****   }
 186:Middlewares/ST/STM32_USB_Device_Library/Core/Src/usbd_core.c **** 
 187:Middlewares/ST/STM32_USB_Device_Library/Core/Src/usbd_core.c ****   /* link the class to the USB Device handle */
 188:Middlewares/ST/STM32_USB_Device_Library/Core/Src/usbd_core.c ****   pdev->pClass = pclass;
 183              		.loc 1 188 0
 184 000e C4F8B812 		str	r1, [r4, #696]
 189:Middlewares/ST/STM32_USB_Device_Library/Core/Src/usbd_core.c **** 
 190:Middlewares/ST/STM32_USB_Device_Library/Core/Src/usbd_core.c ****   /* Get Device Configuration Descriptor */
 191:Middlewares/ST/STM32_USB_Device_Library/Core/Src/usbd_core.c **** #ifdef USE_USB_FS
 192:Middlewares/ST/STM32_USB_Device_Library/Core/Src/usbd_core.c ****   pdev->pConfDesc = (void *)pdev->pClass->GetFSConfigDescriptor(&len);
 193:Middlewares/ST/STM32_USB_Device_Library/Core/Src/usbd_core.c **** #else /* USE_USB_HS */
 194:Middlewares/ST/STM32_USB_Device_Library/Core/Src/usbd_core.c ****   pdev->pConfDesc = (void *)pdev->pClass->GetHSConfigDescriptor(&len);
 185              		.loc 1 194 0
 186 0012 8B6A     		ldr	r3, [r1, #40]
 187 0014 0DF10600 		add	r0, sp, #6
 188              	.LVL15:
 189 0018 9847     		blx	r3
 190              	.LVL16:
 191 001a C4F8CC02 		str	r0, [r4, #716]
 195:Middlewares/ST/STM32_USB_Device_Library/Core/Src/usbd_core.c **** #endif /* USE_USB_FS */
 196:Middlewares/ST/STM32_USB_Device_Library/Core/Src/usbd_core.c **** 
 197:Middlewares/ST/STM32_USB_Device_Library/Core/Src/usbd_core.c **** 
 198:Middlewares/ST/STM32_USB_Device_Library/Core/Src/usbd_core.c ****   return USBD_OK;
 192              		.loc 1 198 0
 193 001e 0020     		movs	r0, #0
 194              	.LVL17:
 195              	.L18:
 199:Middlewares/ST/STM32_USB_Device_Library/Core/Src/usbd_core.c **** }
 196              		.loc 1 199 0
 197 0020 02B0     		add	sp, sp, #8
 198              	.LCFI5:
 199              		.cfi_remember_state
 200              		.cfi_def_cfa_offset 8
 201              		@ sp needed
ARM GAS  C:\Users\User\AppData\Local\Temp\ccTM2mx2.s 			page 8


 202 0022 10BD     		pop	{r4, pc}
 203              	.LVL18:
 204              	.L19:
 205              	.LCFI6:
 206              		.cfi_restore_state
 184:Middlewares/ST/STM32_USB_Device_Library/Core/Src/usbd_core.c ****   }
 207              		.loc 1 184 0
 208 0024 0320     		movs	r0, #3
 209              	.LVL19:
 210 0026 FBE7     		b	.L18
 211              		.cfi_endproc
 212              	.LFE136:
 214              		.section	.text.USBD_Start,"ax",%progbits
 215              		.align	1
 216              		.global	USBD_Start
 217              		.syntax unified
 218              		.thumb
 219              		.thumb_func
 220              		.fpu fpv4-sp-d16
 222              	USBD_Start:
 223              	.LFB137:
 200:Middlewares/ST/STM32_USB_Device_Library/Core/Src/usbd_core.c **** 
 201:Middlewares/ST/STM32_USB_Device_Library/Core/Src/usbd_core.c **** /**
 202:Middlewares/ST/STM32_USB_Device_Library/Core/Src/usbd_core.c ****   * @brief  USBD_Start
 203:Middlewares/ST/STM32_USB_Device_Library/Core/Src/usbd_core.c ****   *         Start the USB Device Core.
 204:Middlewares/ST/STM32_USB_Device_Library/Core/Src/usbd_core.c ****   * @param  pdev: Device Handle
 205:Middlewares/ST/STM32_USB_Device_Library/Core/Src/usbd_core.c ****   * @retval USBD Status
 206:Middlewares/ST/STM32_USB_Device_Library/Core/Src/usbd_core.c ****   */
 207:Middlewares/ST/STM32_USB_Device_Library/Core/Src/usbd_core.c **** USBD_StatusTypeDef USBD_Start(USBD_HandleTypeDef *pdev)
 208:Middlewares/ST/STM32_USB_Device_Library/Core/Src/usbd_core.c **** {
 224              		.loc 1 208 0
 225              		.cfi_startproc
 226              		@ args = 0, pretend = 0, frame = 0
 227              		@ frame_needed = 0, uses_anonymous_args = 0
 228              	.LVL20:
 229 0000 08B5     		push	{r3, lr}
 230              	.LCFI7:
 231              		.cfi_def_cfa_offset 8
 232              		.cfi_offset 3, -8
 233              		.cfi_offset 14, -4
 209:Middlewares/ST/STM32_USB_Device_Library/Core/Src/usbd_core.c ****   /* Start the low level driver  */
 210:Middlewares/ST/STM32_USB_Device_Library/Core/Src/usbd_core.c ****   return USBD_LL_Start(pdev);
 234              		.loc 1 210 0
 235 0002 FFF7FEFF 		bl	USBD_LL_Start
 236              	.LVL21:
 211:Middlewares/ST/STM32_USB_Device_Library/Core/Src/usbd_core.c **** }
 237              		.loc 1 211 0
 238 0006 08BD     		pop	{r3, pc}
 239              		.cfi_endproc
 240              	.LFE137:
 242              		.section	.text.USBD_Stop,"ax",%progbits
 243              		.align	1
 244              		.global	USBD_Stop
 245              		.syntax unified
 246              		.thumb
 247              		.thumb_func
 248              		.fpu fpv4-sp-d16
ARM GAS  C:\Users\User\AppData\Local\Temp\ccTM2mx2.s 			page 9


 250              	USBD_Stop:
 251              	.LFB138:
 212:Middlewares/ST/STM32_USB_Device_Library/Core/Src/usbd_core.c **** 
 213:Middlewares/ST/STM32_USB_Device_Library/Core/Src/usbd_core.c **** /**
 214:Middlewares/ST/STM32_USB_Device_Library/Core/Src/usbd_core.c ****   * @brief  USBD_Stop
 215:Middlewares/ST/STM32_USB_Device_Library/Core/Src/usbd_core.c ****   *         Stop the USB Device Core.
 216:Middlewares/ST/STM32_USB_Device_Library/Core/Src/usbd_core.c ****   * @param  pdev: Device Handle
 217:Middlewares/ST/STM32_USB_Device_Library/Core/Src/usbd_core.c ****   * @retval USBD Status
 218:Middlewares/ST/STM32_USB_Device_Library/Core/Src/usbd_core.c ****   */
 219:Middlewares/ST/STM32_USB_Device_Library/Core/Src/usbd_core.c **** USBD_StatusTypeDef USBD_Stop(USBD_HandleTypeDef *pdev)
 220:Middlewares/ST/STM32_USB_Device_Library/Core/Src/usbd_core.c **** {
 252              		.loc 1 220 0
 253              		.cfi_startproc
 254              		@ args = 0, pretend = 0, frame = 0
 255              		@ frame_needed = 0, uses_anonymous_args = 0
 256              	.LVL22:
 257 0000 10B5     		push	{r4, lr}
 258              	.LCFI8:
 259              		.cfi_def_cfa_offset 8
 260              		.cfi_offset 4, -8
 261              		.cfi_offset 14, -4
 262 0002 0446     		mov	r4, r0
 221:Middlewares/ST/STM32_USB_Device_Library/Core/Src/usbd_core.c ****   USBD_StatusTypeDef ret;
 222:Middlewares/ST/STM32_USB_Device_Library/Core/Src/usbd_core.c **** 
 223:Middlewares/ST/STM32_USB_Device_Library/Core/Src/usbd_core.c ****   /* Free Class Resources */
 224:Middlewares/ST/STM32_USB_Device_Library/Core/Src/usbd_core.c ****   if (pdev->pClass != NULL)
 263              		.loc 1 224 0
 264 0004 D0F8B832 		ldr	r3, [r0, #696]
 265 0008 13B1     		cbz	r3, .L24
 225:Middlewares/ST/STM32_USB_Device_Library/Core/Src/usbd_core.c ****   {
 226:Middlewares/ST/STM32_USB_Device_Library/Core/Src/usbd_core.c ****     pdev->pClass->DeInit(pdev, (uint8_t)pdev->dev_config);
 266              		.loc 1 226 0
 267 000a 5B68     		ldr	r3, [r3, #4]
 268 000c 0179     		ldrb	r1, [r0, #4]	@ zero_extendqisi2
 269 000e 9847     		blx	r3
 270              	.LVL23:
 271              	.L24:
 227:Middlewares/ST/STM32_USB_Device_Library/Core/Src/usbd_core.c ****   }
 228:Middlewares/ST/STM32_USB_Device_Library/Core/Src/usbd_core.c **** 
 229:Middlewares/ST/STM32_USB_Device_Library/Core/Src/usbd_core.c ****   if (pdev->pConfDesc != NULL)
 272              		.loc 1 229 0
 273 0010 D4F8CC32 		ldr	r3, [r4, #716]
 274 0014 13B1     		cbz	r3, .L25
 230:Middlewares/ST/STM32_USB_Device_Library/Core/Src/usbd_core.c ****   {
 231:Middlewares/ST/STM32_USB_Device_Library/Core/Src/usbd_core.c ****     pdev->pConfDesc = NULL;
 275              		.loc 1 231 0
 276 0016 0023     		movs	r3, #0
 277 0018 C4F8CC32 		str	r3, [r4, #716]
 278              	.L25:
 232:Middlewares/ST/STM32_USB_Device_Library/Core/Src/usbd_core.c ****   }
 233:Middlewares/ST/STM32_USB_Device_Library/Core/Src/usbd_core.c **** 
 234:Middlewares/ST/STM32_USB_Device_Library/Core/Src/usbd_core.c ****   /* Stop the low level driver */
 235:Middlewares/ST/STM32_USB_Device_Library/Core/Src/usbd_core.c ****   ret = USBD_LL_Stop(pdev);
 279              		.loc 1 235 0
 280 001c 2046     		mov	r0, r4
 281 001e FFF7FEFF 		bl	USBD_LL_Stop
 282              	.LVL24:
ARM GAS  C:\Users\User\AppData\Local\Temp\ccTM2mx2.s 			page 10


 236:Middlewares/ST/STM32_USB_Device_Library/Core/Src/usbd_core.c **** 
 237:Middlewares/ST/STM32_USB_Device_Library/Core/Src/usbd_core.c ****   return ret;
 238:Middlewares/ST/STM32_USB_Device_Library/Core/Src/usbd_core.c **** }
 283              		.loc 1 238 0
 284 0022 10BD     		pop	{r4, pc}
 285              		.cfi_endproc
 286              	.LFE138:
 288              		.section	.text.USBD_RunTestMode,"ax",%progbits
 289              		.align	1
 290              		.global	USBD_RunTestMode
 291              		.syntax unified
 292              		.thumb
 293              		.thumb_func
 294              		.fpu fpv4-sp-d16
 296              	USBD_RunTestMode:
 297              	.LFB139:
 239:Middlewares/ST/STM32_USB_Device_Library/Core/Src/usbd_core.c **** 
 240:Middlewares/ST/STM32_USB_Device_Library/Core/Src/usbd_core.c **** /**
 241:Middlewares/ST/STM32_USB_Device_Library/Core/Src/usbd_core.c **** * @brief  USBD_RunTestMode
 242:Middlewares/ST/STM32_USB_Device_Library/Core/Src/usbd_core.c **** *         Launch test mode process
 243:Middlewares/ST/STM32_USB_Device_Library/Core/Src/usbd_core.c **** * @param  pdev: device instance
 244:Middlewares/ST/STM32_USB_Device_Library/Core/Src/usbd_core.c **** * @retval status
 245:Middlewares/ST/STM32_USB_Device_Library/Core/Src/usbd_core.c **** */
 246:Middlewares/ST/STM32_USB_Device_Library/Core/Src/usbd_core.c **** USBD_StatusTypeDef USBD_RunTestMode(USBD_HandleTypeDef  *pdev)
 247:Middlewares/ST/STM32_USB_Device_Library/Core/Src/usbd_core.c **** {
 298              		.loc 1 247 0
 299              		.cfi_startproc
 300              		@ args = 0, pretend = 0, frame = 0
 301              		@ frame_needed = 0, uses_anonymous_args = 0
 302              		@ link register save eliminated.
 303              	.LVL25:
 248:Middlewares/ST/STM32_USB_Device_Library/Core/Src/usbd_core.c ****   /* Prevent unused argument compilation warning */
 249:Middlewares/ST/STM32_USB_Device_Library/Core/Src/usbd_core.c ****   UNUSED(pdev);
 250:Middlewares/ST/STM32_USB_Device_Library/Core/Src/usbd_core.c **** 
 251:Middlewares/ST/STM32_USB_Device_Library/Core/Src/usbd_core.c ****   return USBD_OK;
 252:Middlewares/ST/STM32_USB_Device_Library/Core/Src/usbd_core.c **** }
 304              		.loc 1 252 0
 305 0000 0020     		movs	r0, #0
 306              	.LVL26:
 307 0002 7047     		bx	lr
 308              		.cfi_endproc
 309              	.LFE139:
 311              		.section	.text.USBD_SetClassConfig,"ax",%progbits
 312              		.align	1
 313              		.global	USBD_SetClassConfig
 314              		.syntax unified
 315              		.thumb
 316              		.thumb_func
 317              		.fpu fpv4-sp-d16
 319              	USBD_SetClassConfig:
 320              	.LFB140:
 253:Middlewares/ST/STM32_USB_Device_Library/Core/Src/usbd_core.c **** 
 254:Middlewares/ST/STM32_USB_Device_Library/Core/Src/usbd_core.c **** /**
 255:Middlewares/ST/STM32_USB_Device_Library/Core/Src/usbd_core.c **** * @brief  USBD_SetClassConfig
 256:Middlewares/ST/STM32_USB_Device_Library/Core/Src/usbd_core.c **** *        Configure device and start the interface
 257:Middlewares/ST/STM32_USB_Device_Library/Core/Src/usbd_core.c **** * @param  pdev: device instance
 258:Middlewares/ST/STM32_USB_Device_Library/Core/Src/usbd_core.c **** * @param  cfgidx: configuration index
ARM GAS  C:\Users\User\AppData\Local\Temp\ccTM2mx2.s 			page 11


 259:Middlewares/ST/STM32_USB_Device_Library/Core/Src/usbd_core.c **** * @retval status
 260:Middlewares/ST/STM32_USB_Device_Library/Core/Src/usbd_core.c **** */
 261:Middlewares/ST/STM32_USB_Device_Library/Core/Src/usbd_core.c **** 
 262:Middlewares/ST/STM32_USB_Device_Library/Core/Src/usbd_core.c **** USBD_StatusTypeDef USBD_SetClassConfig(USBD_HandleTypeDef *pdev, uint8_t cfgidx)
 263:Middlewares/ST/STM32_USB_Device_Library/Core/Src/usbd_core.c **** {
 321              		.loc 1 263 0
 322              		.cfi_startproc
 323              		@ args = 0, pretend = 0, frame = 0
 324              		@ frame_needed = 0, uses_anonymous_args = 0
 325              	.LVL27:
 326 0000 08B5     		push	{r3, lr}
 327              	.LCFI9:
 328              		.cfi_def_cfa_offset 8
 329              		.cfi_offset 3, -8
 330              		.cfi_offset 14, -4
 331              	.LVL28:
 264:Middlewares/ST/STM32_USB_Device_Library/Core/Src/usbd_core.c ****   USBD_StatusTypeDef ret = USBD_FAIL;
 265:Middlewares/ST/STM32_USB_Device_Library/Core/Src/usbd_core.c **** 
 266:Middlewares/ST/STM32_USB_Device_Library/Core/Src/usbd_core.c ****   if (pdev->pClass != NULL)
 332              		.loc 1 266 0
 333 0002 D0F8B832 		ldr	r3, [r0, #696]
 334 0006 13B1     		cbz	r3, .L30
 267:Middlewares/ST/STM32_USB_Device_Library/Core/Src/usbd_core.c ****   {
 268:Middlewares/ST/STM32_USB_Device_Library/Core/Src/usbd_core.c ****     /* Set configuration and Start the Class */
 269:Middlewares/ST/STM32_USB_Device_Library/Core/Src/usbd_core.c ****     ret = (USBD_StatusTypeDef)pdev->pClass->Init(pdev, cfgidx);
 335              		.loc 1 269 0
 336 0008 1B68     		ldr	r3, [r3]
 337 000a 9847     		blx	r3
 338              	.LVL29:
 339              	.L29:
 270:Middlewares/ST/STM32_USB_Device_Library/Core/Src/usbd_core.c ****   }
 271:Middlewares/ST/STM32_USB_Device_Library/Core/Src/usbd_core.c **** 
 272:Middlewares/ST/STM32_USB_Device_Library/Core/Src/usbd_core.c ****   return ret;
 273:Middlewares/ST/STM32_USB_Device_Library/Core/Src/usbd_core.c **** }
 340              		.loc 1 273 0
 341 000c 08BD     		pop	{r3, pc}
 342              	.LVL30:
 343              	.L30:
 264:Middlewares/ST/STM32_USB_Device_Library/Core/Src/usbd_core.c **** 
 344              		.loc 1 264 0
 345 000e 0320     		movs	r0, #3
 346              	.LVL31:
 347 0010 FCE7     		b	.L29
 348              		.cfi_endproc
 349              	.LFE140:
 351              		.section	.text.USBD_ClrClassConfig,"ax",%progbits
 352              		.align	1
 353              		.global	USBD_ClrClassConfig
 354              		.syntax unified
 355              		.thumb
 356              		.thumb_func
 357              		.fpu fpv4-sp-d16
 359              	USBD_ClrClassConfig:
 360              	.LFB141:
 274:Middlewares/ST/STM32_USB_Device_Library/Core/Src/usbd_core.c **** 
 275:Middlewares/ST/STM32_USB_Device_Library/Core/Src/usbd_core.c **** /**
 276:Middlewares/ST/STM32_USB_Device_Library/Core/Src/usbd_core.c **** * @brief  USBD_ClrClassConfig
ARM GAS  C:\Users\User\AppData\Local\Temp\ccTM2mx2.s 			page 12


 277:Middlewares/ST/STM32_USB_Device_Library/Core/Src/usbd_core.c **** *         Clear current configuration
 278:Middlewares/ST/STM32_USB_Device_Library/Core/Src/usbd_core.c **** * @param  pdev: device instance
 279:Middlewares/ST/STM32_USB_Device_Library/Core/Src/usbd_core.c **** * @param  cfgidx: configuration index
 280:Middlewares/ST/STM32_USB_Device_Library/Core/Src/usbd_core.c **** * @retval status: USBD_StatusTypeDef
 281:Middlewares/ST/STM32_USB_Device_Library/Core/Src/usbd_core.c **** */
 282:Middlewares/ST/STM32_USB_Device_Library/Core/Src/usbd_core.c **** USBD_StatusTypeDef USBD_ClrClassConfig(USBD_HandleTypeDef *pdev, uint8_t cfgidx)
 283:Middlewares/ST/STM32_USB_Device_Library/Core/Src/usbd_core.c **** {
 361              		.loc 1 283 0
 362              		.cfi_startproc
 363              		@ args = 0, pretend = 0, frame = 0
 364              		@ frame_needed = 0, uses_anonymous_args = 0
 365              	.LVL32:
 366 0000 08B5     		push	{r3, lr}
 367              	.LCFI10:
 368              		.cfi_def_cfa_offset 8
 369              		.cfi_offset 3, -8
 370              		.cfi_offset 14, -4
 284:Middlewares/ST/STM32_USB_Device_Library/Core/Src/usbd_core.c ****   /* Clear configuration and De-initialize the Class process */
 285:Middlewares/ST/STM32_USB_Device_Library/Core/Src/usbd_core.c ****   if (pdev->pClass != NULL)
 371              		.loc 1 285 0
 372 0002 D0F8B832 		ldr	r3, [r0, #696]
 373 0006 0BB1     		cbz	r3, .L33
 286:Middlewares/ST/STM32_USB_Device_Library/Core/Src/usbd_core.c ****   {
 287:Middlewares/ST/STM32_USB_Device_Library/Core/Src/usbd_core.c ****     pdev->pClass->DeInit(pdev, cfgidx);
 374              		.loc 1 287 0
 375 0008 5B68     		ldr	r3, [r3, #4]
 376 000a 9847     		blx	r3
 377              	.LVL33:
 378              	.L33:
 288:Middlewares/ST/STM32_USB_Device_Library/Core/Src/usbd_core.c ****   }
 289:Middlewares/ST/STM32_USB_Device_Library/Core/Src/usbd_core.c **** 
 290:Middlewares/ST/STM32_USB_Device_Library/Core/Src/usbd_core.c ****   return USBD_OK;
 291:Middlewares/ST/STM32_USB_Device_Library/Core/Src/usbd_core.c **** }
 379              		.loc 1 291 0
 380 000c 0020     		movs	r0, #0
 381 000e 08BD     		pop	{r3, pc}
 382              		.cfi_endproc
 383              	.LFE141:
 385              		.section	.text.USBD_LL_SetupStage,"ax",%progbits
 386              		.align	1
 387              		.global	USBD_LL_SetupStage
 388              		.syntax unified
 389              		.thumb
 390              		.thumb_func
 391              		.fpu fpv4-sp-d16
 393              	USBD_LL_SetupStage:
 394              	.LFB142:
 292:Middlewares/ST/STM32_USB_Device_Library/Core/Src/usbd_core.c **** 
 293:Middlewares/ST/STM32_USB_Device_Library/Core/Src/usbd_core.c **** 
 294:Middlewares/ST/STM32_USB_Device_Library/Core/Src/usbd_core.c **** /**
 295:Middlewares/ST/STM32_USB_Device_Library/Core/Src/usbd_core.c **** * @brief  USBD_SetupStage
 296:Middlewares/ST/STM32_USB_Device_Library/Core/Src/usbd_core.c **** *         Handle the setup stage
 297:Middlewares/ST/STM32_USB_Device_Library/Core/Src/usbd_core.c **** * @param  pdev: device instance
 298:Middlewares/ST/STM32_USB_Device_Library/Core/Src/usbd_core.c **** * @retval status
 299:Middlewares/ST/STM32_USB_Device_Library/Core/Src/usbd_core.c **** */
 300:Middlewares/ST/STM32_USB_Device_Library/Core/Src/usbd_core.c **** USBD_StatusTypeDef USBD_LL_SetupStage(USBD_HandleTypeDef *pdev, uint8_t *psetup)
 301:Middlewares/ST/STM32_USB_Device_Library/Core/Src/usbd_core.c **** {
ARM GAS  C:\Users\User\AppData\Local\Temp\ccTM2mx2.s 			page 13


 395              		.loc 1 301 0
 396              		.cfi_startproc
 397              		@ args = 0, pretend = 0, frame = 0
 398              		@ frame_needed = 0, uses_anonymous_args = 0
 399              	.LVL34:
 400 0000 38B5     		push	{r3, r4, r5, lr}
 401              	.LCFI11:
 402              		.cfi_def_cfa_offset 16
 403              		.cfi_offset 3, -16
 404              		.cfi_offset 4, -12
 405              		.cfi_offset 5, -8
 406              		.cfi_offset 14, -4
 407 0002 0446     		mov	r4, r0
 302:Middlewares/ST/STM32_USB_Device_Library/Core/Src/usbd_core.c ****   USBD_StatusTypeDef ret;
 303:Middlewares/ST/STM32_USB_Device_Library/Core/Src/usbd_core.c **** 
 304:Middlewares/ST/STM32_USB_Device_Library/Core/Src/usbd_core.c ****   USBD_ParseSetupRequest(&pdev->request, psetup);
 408              		.loc 1 304 0
 409 0004 00F2AA25 		addw	r5, r0, #682
 410 0008 2846     		mov	r0, r5
 411              	.LVL35:
 412 000a FFF7FEFF 		bl	USBD_ParseSetupRequest
 413              	.LVL36:
 305:Middlewares/ST/STM32_USB_Device_Library/Core/Src/usbd_core.c **** 
 306:Middlewares/ST/STM32_USB_Device_Library/Core/Src/usbd_core.c ****   pdev->ep0_state = USBD_EP0_SETUP;
 414              		.loc 1 306 0
 415 000e 0123     		movs	r3, #1
 416 0010 C4F89432 		str	r3, [r4, #660]
 307:Middlewares/ST/STM32_USB_Device_Library/Core/Src/usbd_core.c **** 
 308:Middlewares/ST/STM32_USB_Device_Library/Core/Src/usbd_core.c ****   pdev->ep0_data_len = pdev->request.wLength;
 417              		.loc 1 308 0
 418 0014 B4F8B032 		ldrh	r3, [r4, #688]
 419 0018 C4F89832 		str	r3, [r4, #664]
 309:Middlewares/ST/STM32_USB_Device_Library/Core/Src/usbd_core.c **** 
 310:Middlewares/ST/STM32_USB_Device_Library/Core/Src/usbd_core.c ****   switch (pdev->request.bmRequest & 0x1FU)
 420              		.loc 1 310 0
 421 001c 94F8AA12 		ldrb	r1, [r4, #682]	@ zero_extendqisi2
 422 0020 01F01F03 		and	r3, r1, #31
 423 0024 012B     		cmp	r3, #1
 424 0026 0DD0     		beq	.L37
 425 0028 3BB1     		cbz	r3, .L38
 426 002a 022B     		cmp	r3, #2
 427 002c 0FD0     		beq	.L39
 311:Middlewares/ST/STM32_USB_Device_Library/Core/Src/usbd_core.c ****   {
 312:Middlewares/ST/STM32_USB_Device_Library/Core/Src/usbd_core.c ****     case USB_REQ_RECIPIENT_DEVICE:
 313:Middlewares/ST/STM32_USB_Device_Library/Core/Src/usbd_core.c ****       ret = USBD_StdDevReq(pdev, &pdev->request);
 314:Middlewares/ST/STM32_USB_Device_Library/Core/Src/usbd_core.c ****       break;
 315:Middlewares/ST/STM32_USB_Device_Library/Core/Src/usbd_core.c **** 
 316:Middlewares/ST/STM32_USB_Device_Library/Core/Src/usbd_core.c ****     case USB_REQ_RECIPIENT_INTERFACE:
 317:Middlewares/ST/STM32_USB_Device_Library/Core/Src/usbd_core.c ****       ret = USBD_StdItfReq(pdev, &pdev->request);
 318:Middlewares/ST/STM32_USB_Device_Library/Core/Src/usbd_core.c ****       break;
 319:Middlewares/ST/STM32_USB_Device_Library/Core/Src/usbd_core.c **** 
 320:Middlewares/ST/STM32_USB_Device_Library/Core/Src/usbd_core.c ****     case USB_REQ_RECIPIENT_ENDPOINT:
 321:Middlewares/ST/STM32_USB_Device_Library/Core/Src/usbd_core.c ****       ret = USBD_StdEPReq(pdev, &pdev->request);
 322:Middlewares/ST/STM32_USB_Device_Library/Core/Src/usbd_core.c ****       break;
 323:Middlewares/ST/STM32_USB_Device_Library/Core/Src/usbd_core.c **** 
 324:Middlewares/ST/STM32_USB_Device_Library/Core/Src/usbd_core.c ****     default:
 325:Middlewares/ST/STM32_USB_Device_Library/Core/Src/usbd_core.c ****       ret = USBD_LL_StallEP(pdev, (pdev->request.bmRequest & 0x80U));
ARM GAS  C:\Users\User\AppData\Local\Temp\ccTM2mx2.s 			page 14


 428              		.loc 1 325 0
 429 002e 01F08001 		and	r1, r1, #128
 430 0032 2046     		mov	r0, r4
 431 0034 FFF7FEFF 		bl	USBD_LL_StallEP
 432              	.LVL37:
 326:Middlewares/ST/STM32_USB_Device_Library/Core/Src/usbd_core.c ****       break;
 433              		.loc 1 326 0
 434 0038 03E0     		b	.L40
 435              	.LVL38:
 436              	.L38:
 313:Middlewares/ST/STM32_USB_Device_Library/Core/Src/usbd_core.c ****       break;
 437              		.loc 1 313 0
 438 003a 2946     		mov	r1, r5
 439 003c 2046     		mov	r0, r4
 440 003e FFF7FEFF 		bl	USBD_StdDevReq
 441              	.LVL39:
 442              	.L40:
 327:Middlewares/ST/STM32_USB_Device_Library/Core/Src/usbd_core.c ****   }
 328:Middlewares/ST/STM32_USB_Device_Library/Core/Src/usbd_core.c **** 
 329:Middlewares/ST/STM32_USB_Device_Library/Core/Src/usbd_core.c ****   return ret;
 330:Middlewares/ST/STM32_USB_Device_Library/Core/Src/usbd_core.c **** }
 443              		.loc 1 330 0
 444 0042 38BD     		pop	{r3, r4, r5, pc}
 445              	.LVL40:
 446              	.L37:
 317:Middlewares/ST/STM32_USB_Device_Library/Core/Src/usbd_core.c ****       break;
 447              		.loc 1 317 0
 448 0044 2946     		mov	r1, r5
 449 0046 2046     		mov	r0, r4
 450 0048 FFF7FEFF 		bl	USBD_StdItfReq
 451              	.LVL41:
 318:Middlewares/ST/STM32_USB_Device_Library/Core/Src/usbd_core.c **** 
 452              		.loc 1 318 0
 453 004c F9E7     		b	.L40
 454              	.LVL42:
 455              	.L39:
 321:Middlewares/ST/STM32_USB_Device_Library/Core/Src/usbd_core.c ****       break;
 456              		.loc 1 321 0
 457 004e 2946     		mov	r1, r5
 458 0050 2046     		mov	r0, r4
 459 0052 FFF7FEFF 		bl	USBD_StdEPReq
 460              	.LVL43:
 322:Middlewares/ST/STM32_USB_Device_Library/Core/Src/usbd_core.c **** 
 461              		.loc 1 322 0
 462 0056 F4E7     		b	.L40
 463              		.cfi_endproc
 464              	.LFE142:
 466              		.section	.text.USBD_LL_DataOutStage,"ax",%progbits
 467              		.align	1
 468              		.global	USBD_LL_DataOutStage
 469              		.syntax unified
 470              		.thumb
 471              		.thumb_func
 472              		.fpu fpv4-sp-d16
 474              	USBD_LL_DataOutStage:
 475              	.LFB143:
 331:Middlewares/ST/STM32_USB_Device_Library/Core/Src/usbd_core.c **** 
ARM GAS  C:\Users\User\AppData\Local\Temp\ccTM2mx2.s 			page 15


 332:Middlewares/ST/STM32_USB_Device_Library/Core/Src/usbd_core.c **** /**
 333:Middlewares/ST/STM32_USB_Device_Library/Core/Src/usbd_core.c **** * @brief  USBD_DataOutStage
 334:Middlewares/ST/STM32_USB_Device_Library/Core/Src/usbd_core.c **** *         Handle data OUT stage
 335:Middlewares/ST/STM32_USB_Device_Library/Core/Src/usbd_core.c **** * @param  pdev: device instance
 336:Middlewares/ST/STM32_USB_Device_Library/Core/Src/usbd_core.c **** * @param  epnum: endpoint index
 337:Middlewares/ST/STM32_USB_Device_Library/Core/Src/usbd_core.c **** * @retval status
 338:Middlewares/ST/STM32_USB_Device_Library/Core/Src/usbd_core.c **** */
 339:Middlewares/ST/STM32_USB_Device_Library/Core/Src/usbd_core.c **** USBD_StatusTypeDef USBD_LL_DataOutStage(USBD_HandleTypeDef *pdev,
 340:Middlewares/ST/STM32_USB_Device_Library/Core/Src/usbd_core.c ****                                         uint8_t epnum, uint8_t *pdata)
 341:Middlewares/ST/STM32_USB_Device_Library/Core/Src/usbd_core.c **** {
 476              		.loc 1 341 0
 477              		.cfi_startproc
 478              		@ args = 0, pretend = 0, frame = 0
 479              		@ frame_needed = 0, uses_anonymous_args = 0
 480              	.LVL44:
 481 0000 10B5     		push	{r4, lr}
 482              	.LCFI12:
 483              		.cfi_def_cfa_offset 8
 484              		.cfi_offset 4, -8
 485              		.cfi_offset 14, -4
 486 0002 0446     		mov	r4, r0
 342:Middlewares/ST/STM32_USB_Device_Library/Core/Src/usbd_core.c ****   USBD_EndpointTypeDef *pep;
 343:Middlewares/ST/STM32_USB_Device_Library/Core/Src/usbd_core.c ****   USBD_StatusTypeDef ret;
 344:Middlewares/ST/STM32_USB_Device_Library/Core/Src/usbd_core.c **** 
 345:Middlewares/ST/STM32_USB_Device_Library/Core/Src/usbd_core.c ****   if (epnum == 0U)
 487              		.loc 1 345 0
 488 0004 29BB     		cbnz	r1, .L44
 489 0006 1346     		mov	r3, r2
 490              	.LVL45:
 346:Middlewares/ST/STM32_USB_Device_Library/Core/Src/usbd_core.c ****   {
 347:Middlewares/ST/STM32_USB_Device_Library/Core/Src/usbd_core.c ****     pep = &pdev->ep_out[0];
 348:Middlewares/ST/STM32_USB_Device_Library/Core/Src/usbd_core.c **** 
 349:Middlewares/ST/STM32_USB_Device_Library/Core/Src/usbd_core.c ****     if (pdev->ep0_state == USBD_EP0_DATA_OUT)
 491              		.loc 1 349 0
 492 0008 D0F89422 		ldr	r2, [r0, #660]
 493              	.LVL46:
 494 000c 032A     		cmp	r2, #3
 495 000e 01D0     		beq	.L52
 350:Middlewares/ST/STM32_USB_Device_Library/Core/Src/usbd_core.c ****     {
 351:Middlewares/ST/STM32_USB_Device_Library/Core/Src/usbd_core.c ****       if (pep->rem_length > pep->maxpacket)
 352:Middlewares/ST/STM32_USB_Device_Library/Core/Src/usbd_core.c ****       {
 353:Middlewares/ST/STM32_USB_Device_Library/Core/Src/usbd_core.c ****         pep->rem_length -= pep->maxpacket;
 354:Middlewares/ST/STM32_USB_Device_Library/Core/Src/usbd_core.c **** 
 355:Middlewares/ST/STM32_USB_Device_Library/Core/Src/usbd_core.c ****         (void)USBD_CtlContinueRx(pdev, pdata, MIN(pep->rem_length, pep->maxpacket));
 356:Middlewares/ST/STM32_USB_Device_Library/Core/Src/usbd_core.c ****       }
 357:Middlewares/ST/STM32_USB_Device_Library/Core/Src/usbd_core.c ****       else
 358:Middlewares/ST/STM32_USB_Device_Library/Core/Src/usbd_core.c ****       {
 359:Middlewares/ST/STM32_USB_Device_Library/Core/Src/usbd_core.c ****         if ((pdev->pClass->EP0_RxReady != NULL) &&
 360:Middlewares/ST/STM32_USB_Device_Library/Core/Src/usbd_core.c ****             (pdev->dev_state == USBD_STATE_CONFIGURED))
 361:Middlewares/ST/STM32_USB_Device_Library/Core/Src/usbd_core.c ****         {
 362:Middlewares/ST/STM32_USB_Device_Library/Core/Src/usbd_core.c ****           pdev->pClass->EP0_RxReady(pdev);
 363:Middlewares/ST/STM32_USB_Device_Library/Core/Src/usbd_core.c ****         }
 364:Middlewares/ST/STM32_USB_Device_Library/Core/Src/usbd_core.c ****         (void)USBD_CtlSendStatus(pdev);
 365:Middlewares/ST/STM32_USB_Device_Library/Core/Src/usbd_core.c ****       }
 366:Middlewares/ST/STM32_USB_Device_Library/Core/Src/usbd_core.c ****     }
 367:Middlewares/ST/STM32_USB_Device_Library/Core/Src/usbd_core.c ****     else
 368:Middlewares/ST/STM32_USB_Device_Library/Core/Src/usbd_core.c ****     {
ARM GAS  C:\Users\User\AppData\Local\Temp\ccTM2mx2.s 			page 16


 369:Middlewares/ST/STM32_USB_Device_Library/Core/Src/usbd_core.c **** #if 0
 370:Middlewares/ST/STM32_USB_Device_Library/Core/Src/usbd_core.c ****       if (pdev->ep0_state == USBD_EP0_STATUS_OUT)
 371:Middlewares/ST/STM32_USB_Device_Library/Core/Src/usbd_core.c ****       {
 372:Middlewares/ST/STM32_USB_Device_Library/Core/Src/usbd_core.c ****         /*
 373:Middlewares/ST/STM32_USB_Device_Library/Core/Src/usbd_core.c ****          * STATUS PHASE completed, update ep0_state to idle
 374:Middlewares/ST/STM32_USB_Device_Library/Core/Src/usbd_core.c ****          */
 375:Middlewares/ST/STM32_USB_Device_Library/Core/Src/usbd_core.c ****         pdev->ep0_state = USBD_EP0_IDLE;
 376:Middlewares/ST/STM32_USB_Device_Library/Core/Src/usbd_core.c ****         (void)USBD_LL_StallEP(pdev, 0U);
 377:Middlewares/ST/STM32_USB_Device_Library/Core/Src/usbd_core.c ****       }
 378:Middlewares/ST/STM32_USB_Device_Library/Core/Src/usbd_core.c **** #endif
 379:Middlewares/ST/STM32_USB_Device_Library/Core/Src/usbd_core.c ****     }
 380:Middlewares/ST/STM32_USB_Device_Library/Core/Src/usbd_core.c ****   }
 381:Middlewares/ST/STM32_USB_Device_Library/Core/Src/usbd_core.c ****   else if ((pdev->pClass->DataOut != NULL) &&
 382:Middlewares/ST/STM32_USB_Device_Library/Core/Src/usbd_core.c ****            (pdev->dev_state == USBD_STATE_CONFIGURED))
 383:Middlewares/ST/STM32_USB_Device_Library/Core/Src/usbd_core.c ****   {
 384:Middlewares/ST/STM32_USB_Device_Library/Core/Src/usbd_core.c ****     ret = (USBD_StatusTypeDef)pdev->pClass->DataOut(pdev, epnum);
 385:Middlewares/ST/STM32_USB_Device_Library/Core/Src/usbd_core.c **** 
 386:Middlewares/ST/STM32_USB_Device_Library/Core/Src/usbd_core.c ****     if (ret != USBD_OK)
 387:Middlewares/ST/STM32_USB_Device_Library/Core/Src/usbd_core.c ****     {
 388:Middlewares/ST/STM32_USB_Device_Library/Core/Src/usbd_core.c ****       return ret;
 389:Middlewares/ST/STM32_USB_Device_Library/Core/Src/usbd_core.c ****     }
 390:Middlewares/ST/STM32_USB_Device_Library/Core/Src/usbd_core.c ****   }
 391:Middlewares/ST/STM32_USB_Device_Library/Core/Src/usbd_core.c ****   else
 392:Middlewares/ST/STM32_USB_Device_Library/Core/Src/usbd_core.c ****   {
 393:Middlewares/ST/STM32_USB_Device_Library/Core/Src/usbd_core.c ****     /* should never be in this condition */
 394:Middlewares/ST/STM32_USB_Device_Library/Core/Src/usbd_core.c ****     return USBD_FAIL;
 395:Middlewares/ST/STM32_USB_Device_Library/Core/Src/usbd_core.c ****   }
 396:Middlewares/ST/STM32_USB_Device_Library/Core/Src/usbd_core.c **** 
 397:Middlewares/ST/STM32_USB_Device_Library/Core/Src/usbd_core.c ****   return USBD_OK;
 496              		.loc 1 397 0
 497 0010 0020     		movs	r0, #0
 498              	.LVL47:
 499 0012 29E0     		b	.L45
 500              	.LVL48:
 501              	.L52:
 351:Middlewares/ST/STM32_USB_Device_Library/Core/Src/usbd_core.c ****       {
 502              		.loc 1 351 0
 503 0014 D0F85C11 		ldr	r1, [r0, #348]
 504              	.LVL49:
 505 0018 D0F86021 		ldr	r2, [r0, #352]
 506 001c 9142     		cmp	r1, r2
 507 001e 0DD8     		bhi	.L53
 359:Middlewares/ST/STM32_USB_Device_Library/Core/Src/usbd_core.c ****             (pdev->dev_state == USBD_STATE_CONFIGURED))
 508              		.loc 1 359 0
 509 0020 D0F8B832 		ldr	r3, [r0, #696]
 510              	.LVL50:
 511 0024 1B69     		ldr	r3, [r3, #16]
 512 0026 23B1     		cbz	r3, .L47
 360:Middlewares/ST/STM32_USB_Device_Library/Core/Src/usbd_core.c ****         {
 513              		.loc 1 360 0 discriminator 1
 514 0028 90F89C22 		ldrb	r2, [r0, #668]	@ zero_extendqisi2
 359:Middlewares/ST/STM32_USB_Device_Library/Core/Src/usbd_core.c ****             (pdev->dev_state == USBD_STATE_CONFIGURED))
 515              		.loc 1 359 0 discriminator 1
 516 002c 032A     		cmp	r2, #3
 517 002e 00D1     		bne	.L47
 362:Middlewares/ST/STM32_USB_Device_Library/Core/Src/usbd_core.c ****         }
 518              		.loc 1 362 0
ARM GAS  C:\Users\User\AppData\Local\Temp\ccTM2mx2.s 			page 17


 519 0030 9847     		blx	r3
 520              	.LVL51:
 521              	.L47:
 364:Middlewares/ST/STM32_USB_Device_Library/Core/Src/usbd_core.c ****       }
 522              		.loc 1 364 0
 523 0032 2046     		mov	r0, r4
 524 0034 FFF7FEFF 		bl	USBD_CtlSendStatus
 525              	.LVL52:
 526              		.loc 1 397 0
 527 0038 0020     		movs	r0, #0
 528 003a 15E0     		b	.L45
 529              	.LVL53:
 530              	.L53:
 353:Middlewares/ST/STM32_USB_Device_Library/Core/Src/usbd_core.c **** 
 531              		.loc 1 353 0
 532 003c 891A     		subs	r1, r1, r2
 533 003e C0F85C11 		str	r1, [r0, #348]
 355:Middlewares/ST/STM32_USB_Device_Library/Core/Src/usbd_core.c ****       }
 534              		.loc 1 355 0
 535 0042 8A42     		cmp	r2, r1
 536 0044 28BF     		it	cs
 537 0046 0A46     		movcs	r2, r1
 538 0048 1946     		mov	r1, r3
 539 004a FFF7FEFF 		bl	USBD_CtlContinueRx
 540              	.LVL54:
 541              		.loc 1 397 0
 542 004e 0020     		movs	r0, #0
 543 0050 0AE0     		b	.L45
 544              	.LVL55:
 545              	.L44:
 546 0052 0A46     		mov	r2, r1
 547              	.LVL56:
 381:Middlewares/ST/STM32_USB_Device_Library/Core/Src/usbd_core.c ****            (pdev->dev_state == USBD_STATE_CONFIGURED))
 548              		.loc 1 381 0
 549 0054 D0F8B832 		ldr	r3, [r0, #696]
 550 0058 9B69     		ldr	r3, [r3, #24]
 551 005a 33B1     		cbz	r3, .L49
 382:Middlewares/ST/STM32_USB_Device_Library/Core/Src/usbd_core.c ****   {
 552              		.loc 1 382 0 discriminator 1
 553 005c 90F89C12 		ldrb	r1, [r0, #668]	@ zero_extendqisi2
 554              	.LVL57:
 381:Middlewares/ST/STM32_USB_Device_Library/Core/Src/usbd_core.c ****            (pdev->dev_state == USBD_STATE_CONFIGURED))
 555              		.loc 1 381 0 discriminator 1
 556 0060 0329     		cmp	r1, #3
 557 0062 04D1     		bne	.L50
 384:Middlewares/ST/STM32_USB_Device_Library/Core/Src/usbd_core.c **** 
 558              		.loc 1 384 0
 559 0064 1146     		mov	r1, r2
 560 0066 9847     		blx	r3
 561              	.LVL58:
 562              	.L45:
 398:Middlewares/ST/STM32_USB_Device_Library/Core/Src/usbd_core.c **** }
 563              		.loc 1 398 0
 564 0068 10BD     		pop	{r4, pc}
 565              	.LVL59:
 566              	.L49:
 394:Middlewares/ST/STM32_USB_Device_Library/Core/Src/usbd_core.c ****   }
ARM GAS  C:\Users\User\AppData\Local\Temp\ccTM2mx2.s 			page 18


 567              		.loc 1 394 0
 568 006a 0320     		movs	r0, #3
 569              	.LVL60:
 570 006c FCE7     		b	.L45
 571              	.LVL61:
 572              	.L50:
 573 006e 0320     		movs	r0, #3
 574              	.LVL62:
 575 0070 FAE7     		b	.L45
 576              		.cfi_endproc
 577              	.LFE143:
 579              		.section	.text.USBD_LL_DataInStage,"ax",%progbits
 580              		.align	1
 581              		.global	USBD_LL_DataInStage
 582              		.syntax unified
 583              		.thumb
 584              		.thumb_func
 585              		.fpu fpv4-sp-d16
 587              	USBD_LL_DataInStage:
 588              	.LFB144:
 399:Middlewares/ST/STM32_USB_Device_Library/Core/Src/usbd_core.c **** 
 400:Middlewares/ST/STM32_USB_Device_Library/Core/Src/usbd_core.c **** /**
 401:Middlewares/ST/STM32_USB_Device_Library/Core/Src/usbd_core.c **** * @brief  USBD_DataInStage
 402:Middlewares/ST/STM32_USB_Device_Library/Core/Src/usbd_core.c **** *         Handle data in stage
 403:Middlewares/ST/STM32_USB_Device_Library/Core/Src/usbd_core.c **** * @param  pdev: device instance
 404:Middlewares/ST/STM32_USB_Device_Library/Core/Src/usbd_core.c **** * @param  epnum: endpoint index
 405:Middlewares/ST/STM32_USB_Device_Library/Core/Src/usbd_core.c **** * @retval status
 406:Middlewares/ST/STM32_USB_Device_Library/Core/Src/usbd_core.c **** */
 407:Middlewares/ST/STM32_USB_Device_Library/Core/Src/usbd_core.c **** USBD_StatusTypeDef USBD_LL_DataInStage(USBD_HandleTypeDef *pdev,
 408:Middlewares/ST/STM32_USB_Device_Library/Core/Src/usbd_core.c ****                                        uint8_t epnum, uint8_t *pdata)
 409:Middlewares/ST/STM32_USB_Device_Library/Core/Src/usbd_core.c **** {
 589              		.loc 1 409 0
 590              		.cfi_startproc
 591              		@ args = 0, pretend = 0, frame = 0
 592              		@ frame_needed = 0, uses_anonymous_args = 0
 593              	.LVL63:
 594 0000 10B5     		push	{r4, lr}
 595              	.LCFI13:
 596              		.cfi_def_cfa_offset 8
 597              		.cfi_offset 4, -8
 598              		.cfi_offset 14, -4
 599 0002 0446     		mov	r4, r0
 410:Middlewares/ST/STM32_USB_Device_Library/Core/Src/usbd_core.c ****   USBD_EndpointTypeDef *pep;
 411:Middlewares/ST/STM32_USB_Device_Library/Core/Src/usbd_core.c ****   USBD_StatusTypeDef ret;
 412:Middlewares/ST/STM32_USB_Device_Library/Core/Src/usbd_core.c **** 
 413:Middlewares/ST/STM32_USB_Device_Library/Core/Src/usbd_core.c ****   if (epnum == 0U)
 600              		.loc 1 413 0
 601 0004 0029     		cmp	r1, #0
 602 0006 46D1     		bne	.L55
 603 0008 1346     		mov	r3, r2
 604              	.LVL64:
 414:Middlewares/ST/STM32_USB_Device_Library/Core/Src/usbd_core.c ****   {
 415:Middlewares/ST/STM32_USB_Device_Library/Core/Src/usbd_core.c ****     pep = &pdev->ep_in[0];
 416:Middlewares/ST/STM32_USB_Device_Library/Core/Src/usbd_core.c **** 
 417:Middlewares/ST/STM32_USB_Device_Library/Core/Src/usbd_core.c ****     if (pdev->ep0_state == USBD_EP0_DATA_IN)
 605              		.loc 1 417 0
 606 000a D0F89422 		ldr	r2, [r0, #660]
ARM GAS  C:\Users\User\AppData\Local\Temp\ccTM2mx2.s 			page 19


 607              	.LVL65:
 608 000e 022A     		cmp	r2, #2
 609 0010 05D0     		beq	.L65
 610              	.LVL66:
 611              	.L56:
 418:Middlewares/ST/STM32_USB_Device_Library/Core/Src/usbd_core.c ****     {
 419:Middlewares/ST/STM32_USB_Device_Library/Core/Src/usbd_core.c ****       if (pep->rem_length > pep->maxpacket)
 420:Middlewares/ST/STM32_USB_Device_Library/Core/Src/usbd_core.c ****       {
 421:Middlewares/ST/STM32_USB_Device_Library/Core/Src/usbd_core.c ****         pep->rem_length -= pep->maxpacket;
 422:Middlewares/ST/STM32_USB_Device_Library/Core/Src/usbd_core.c **** 
 423:Middlewares/ST/STM32_USB_Device_Library/Core/Src/usbd_core.c ****         (void)USBD_CtlContinueSendData(pdev, pdata, pep->rem_length);
 424:Middlewares/ST/STM32_USB_Device_Library/Core/Src/usbd_core.c **** 
 425:Middlewares/ST/STM32_USB_Device_Library/Core/Src/usbd_core.c ****         /* Prepare endpoint for premature end of transfer */
 426:Middlewares/ST/STM32_USB_Device_Library/Core/Src/usbd_core.c ****        (void)USBD_LL_PrepareReceive(pdev, 0U, NULL, 0U);
 427:Middlewares/ST/STM32_USB_Device_Library/Core/Src/usbd_core.c ****       }
 428:Middlewares/ST/STM32_USB_Device_Library/Core/Src/usbd_core.c ****       else
 429:Middlewares/ST/STM32_USB_Device_Library/Core/Src/usbd_core.c ****       {
 430:Middlewares/ST/STM32_USB_Device_Library/Core/Src/usbd_core.c ****         /* last packet is MPS multiple, so send ZLP packet */
 431:Middlewares/ST/STM32_USB_Device_Library/Core/Src/usbd_core.c ****         if ((pep->maxpacket == pep->rem_length) &&
 432:Middlewares/ST/STM32_USB_Device_Library/Core/Src/usbd_core.c ****             (pep->total_length >= pep->maxpacket) &&
 433:Middlewares/ST/STM32_USB_Device_Library/Core/Src/usbd_core.c ****             (pep->total_length < pdev->ep0_data_len))
 434:Middlewares/ST/STM32_USB_Device_Library/Core/Src/usbd_core.c ****         {
 435:Middlewares/ST/STM32_USB_Device_Library/Core/Src/usbd_core.c ****           (void)USBD_CtlContinueSendData(pdev, NULL, 0U);
 436:Middlewares/ST/STM32_USB_Device_Library/Core/Src/usbd_core.c ****           pdev->ep0_data_len = 0U;
 437:Middlewares/ST/STM32_USB_Device_Library/Core/Src/usbd_core.c **** 
 438:Middlewares/ST/STM32_USB_Device_Library/Core/Src/usbd_core.c ****           /* Prepare endpoint for premature end of transfer */
 439:Middlewares/ST/STM32_USB_Device_Library/Core/Src/usbd_core.c ****           (void)USBD_LL_PrepareReceive(pdev, 0U, NULL, 0U);
 440:Middlewares/ST/STM32_USB_Device_Library/Core/Src/usbd_core.c ****         }
 441:Middlewares/ST/STM32_USB_Device_Library/Core/Src/usbd_core.c ****         else
 442:Middlewares/ST/STM32_USB_Device_Library/Core/Src/usbd_core.c ****         {
 443:Middlewares/ST/STM32_USB_Device_Library/Core/Src/usbd_core.c ****           if ((pdev->pClass->EP0_TxSent != NULL) &&
 444:Middlewares/ST/STM32_USB_Device_Library/Core/Src/usbd_core.c ****               (pdev->dev_state == USBD_STATE_CONFIGURED))
 445:Middlewares/ST/STM32_USB_Device_Library/Core/Src/usbd_core.c ****           {
 446:Middlewares/ST/STM32_USB_Device_Library/Core/Src/usbd_core.c ****             pdev->pClass->EP0_TxSent(pdev);
 447:Middlewares/ST/STM32_USB_Device_Library/Core/Src/usbd_core.c ****           }
 448:Middlewares/ST/STM32_USB_Device_Library/Core/Src/usbd_core.c ****           (void)USBD_LL_StallEP(pdev, 0x80U);
 449:Middlewares/ST/STM32_USB_Device_Library/Core/Src/usbd_core.c ****           (void)USBD_CtlReceiveStatus(pdev);
 450:Middlewares/ST/STM32_USB_Device_Library/Core/Src/usbd_core.c ****         }
 451:Middlewares/ST/STM32_USB_Device_Library/Core/Src/usbd_core.c ****       }
 452:Middlewares/ST/STM32_USB_Device_Library/Core/Src/usbd_core.c ****     }
 453:Middlewares/ST/STM32_USB_Device_Library/Core/Src/usbd_core.c ****     else
 454:Middlewares/ST/STM32_USB_Device_Library/Core/Src/usbd_core.c ****     {
 455:Middlewares/ST/STM32_USB_Device_Library/Core/Src/usbd_core.c **** #if 0
 456:Middlewares/ST/STM32_USB_Device_Library/Core/Src/usbd_core.c ****       if ((pdev->ep0_state == USBD_EP0_STATUS_IN) ||
 457:Middlewares/ST/STM32_USB_Device_Library/Core/Src/usbd_core.c ****           (pdev->ep0_state == USBD_EP0_IDLE))
 458:Middlewares/ST/STM32_USB_Device_Library/Core/Src/usbd_core.c ****       {
 459:Middlewares/ST/STM32_USB_Device_Library/Core/Src/usbd_core.c ****         (void)USBD_LL_StallEP(pdev, 0x80U);
 460:Middlewares/ST/STM32_USB_Device_Library/Core/Src/usbd_core.c ****       }
 461:Middlewares/ST/STM32_USB_Device_Library/Core/Src/usbd_core.c **** #endif
 462:Middlewares/ST/STM32_USB_Device_Library/Core/Src/usbd_core.c ****     }
 463:Middlewares/ST/STM32_USB_Device_Library/Core/Src/usbd_core.c **** 
 464:Middlewares/ST/STM32_USB_Device_Library/Core/Src/usbd_core.c ****     if (pdev->dev_test_mode == 1U)
 612              		.loc 1 464 0
 613 0012 94F8A032 		ldrb	r3, [r4, #672]	@ zero_extendqisi2
 614 0016 012B     		cmp	r3, #1
 615 0018 39D0     		beq	.L66
 465:Middlewares/ST/STM32_USB_Device_Library/Core/Src/usbd_core.c ****     {
ARM GAS  C:\Users\User\AppData\Local\Temp\ccTM2mx2.s 			page 20


 466:Middlewares/ST/STM32_USB_Device_Library/Core/Src/usbd_core.c ****       (void)USBD_RunTestMode(pdev);
 467:Middlewares/ST/STM32_USB_Device_Library/Core/Src/usbd_core.c ****       pdev->dev_test_mode = 0U;
 468:Middlewares/ST/STM32_USB_Device_Library/Core/Src/usbd_core.c ****     }
 469:Middlewares/ST/STM32_USB_Device_Library/Core/Src/usbd_core.c ****   }
 470:Middlewares/ST/STM32_USB_Device_Library/Core/Src/usbd_core.c ****   else if ((pdev->pClass->DataIn != NULL) &&
 471:Middlewares/ST/STM32_USB_Device_Library/Core/Src/usbd_core.c ****            (pdev->dev_state == USBD_STATE_CONFIGURED))
 472:Middlewares/ST/STM32_USB_Device_Library/Core/Src/usbd_core.c ****   {
 473:Middlewares/ST/STM32_USB_Device_Library/Core/Src/usbd_core.c ****     ret = (USBD_StatusTypeDef)pdev->pClass->DataIn(pdev, epnum);
 474:Middlewares/ST/STM32_USB_Device_Library/Core/Src/usbd_core.c **** 
 475:Middlewares/ST/STM32_USB_Device_Library/Core/Src/usbd_core.c ****     if (ret != USBD_OK)
 476:Middlewares/ST/STM32_USB_Device_Library/Core/Src/usbd_core.c ****     {
 477:Middlewares/ST/STM32_USB_Device_Library/Core/Src/usbd_core.c ****       return ret;
 478:Middlewares/ST/STM32_USB_Device_Library/Core/Src/usbd_core.c ****     }
 479:Middlewares/ST/STM32_USB_Device_Library/Core/Src/usbd_core.c ****   }
 480:Middlewares/ST/STM32_USB_Device_Library/Core/Src/usbd_core.c ****   else
 481:Middlewares/ST/STM32_USB_Device_Library/Core/Src/usbd_core.c ****   {
 482:Middlewares/ST/STM32_USB_Device_Library/Core/Src/usbd_core.c ****     /* should never be in this condition */
 483:Middlewares/ST/STM32_USB_Device_Library/Core/Src/usbd_core.c ****     return USBD_FAIL;
 484:Middlewares/ST/STM32_USB_Device_Library/Core/Src/usbd_core.c ****   }
 485:Middlewares/ST/STM32_USB_Device_Library/Core/Src/usbd_core.c **** 
 486:Middlewares/ST/STM32_USB_Device_Library/Core/Src/usbd_core.c ****   return USBD_OK;
 616              		.loc 1 486 0
 617 001a 0020     		movs	r0, #0
 618 001c 46E0     		b	.L60
 619              	.LVL67:
 620              	.L65:
 419:Middlewares/ST/STM32_USB_Device_Library/Core/Src/usbd_core.c ****       {
 621              		.loc 1 419 0
 622 001e C269     		ldr	r2, [r0, #28]
 623 0020 016A     		ldr	r1, [r0, #32]
 624              	.LVL68:
 625 0022 8A42     		cmp	r2, r1
 626 0024 13D8     		bhi	.L67
 431:Middlewares/ST/STM32_USB_Device_Library/Core/Src/usbd_core.c ****             (pep->total_length >= pep->maxpacket) &&
 627              		.loc 1 431 0
 628 0026 8A42     		cmp	r2, r1
 629 0028 1DD0     		beq	.L68
 630              	.LVL69:
 631              	.L58:
 443:Middlewares/ST/STM32_USB_Device_Library/Core/Src/usbd_core.c ****               (pdev->dev_state == USBD_STATE_CONFIGURED))
 632              		.loc 1 443 0
 633 002a D4F8B832 		ldr	r3, [r4, #696]
 634 002e DB68     		ldr	r3, [r3, #12]
 635 0030 2BB1     		cbz	r3, .L59
 444:Middlewares/ST/STM32_USB_Device_Library/Core/Src/usbd_core.c ****           {
 636              		.loc 1 444 0 discriminator 1
 637 0032 94F89C22 		ldrb	r2, [r4, #668]	@ zero_extendqisi2
 443:Middlewares/ST/STM32_USB_Device_Library/Core/Src/usbd_core.c ****               (pdev->dev_state == USBD_STATE_CONFIGURED))
 638              		.loc 1 443 0 discriminator 1
 639 0036 032A     		cmp	r2, #3
 640 0038 01D1     		bne	.L59
 446:Middlewares/ST/STM32_USB_Device_Library/Core/Src/usbd_core.c ****           }
 641              		.loc 1 446 0
 642 003a 2046     		mov	r0, r4
 643              	.LVL70:
 644 003c 9847     		blx	r3
 645              	.LVL71:
ARM GAS  C:\Users\User\AppData\Local\Temp\ccTM2mx2.s 			page 21


 646              	.L59:
 448:Middlewares/ST/STM32_USB_Device_Library/Core/Src/usbd_core.c ****           (void)USBD_CtlReceiveStatus(pdev);
 647              		.loc 1 448 0
 648 003e 8021     		movs	r1, #128
 649 0040 2046     		mov	r0, r4
 650 0042 FFF7FEFF 		bl	USBD_LL_StallEP
 651              	.LVL72:
 449:Middlewares/ST/STM32_USB_Device_Library/Core/Src/usbd_core.c ****         }
 652              		.loc 1 449 0
 653 0046 2046     		mov	r0, r4
 654 0048 FFF7FEFF 		bl	USBD_CtlReceiveStatus
 655              	.LVL73:
 656 004c E1E7     		b	.L56
 657              	.LVL74:
 658              	.L67:
 421:Middlewares/ST/STM32_USB_Device_Library/Core/Src/usbd_core.c **** 
 659              		.loc 1 421 0
 660 004e 521A     		subs	r2, r2, r1
 661 0050 C261     		str	r2, [r0, #28]
 423:Middlewares/ST/STM32_USB_Device_Library/Core/Src/usbd_core.c **** 
 662              		.loc 1 423 0
 663 0052 1946     		mov	r1, r3
 664 0054 FFF7FEFF 		bl	USBD_CtlContinueSendData
 665              	.LVL75:
 426:Middlewares/ST/STM32_USB_Device_Library/Core/Src/usbd_core.c ****       }
 666              		.loc 1 426 0
 667 0058 0023     		movs	r3, #0
 668 005a 1A46     		mov	r2, r3
 669 005c 1946     		mov	r1, r3
 670 005e 2046     		mov	r0, r4
 671 0060 FFF7FEFF 		bl	USBD_LL_PrepareReceive
 672              	.LVL76:
 673 0064 D5E7     		b	.L56
 674              	.LVL77:
 675              	.L68:
 432:Middlewares/ST/STM32_USB_Device_Library/Core/Src/usbd_core.c ****             (pep->total_length < pdev->ep0_data_len))
 676              		.loc 1 432 0 discriminator 1
 677 0066 8369     		ldr	r3, [r0, #24]
 678              	.LVL78:
 431:Middlewares/ST/STM32_USB_Device_Library/Core/Src/usbd_core.c ****             (pep->total_length >= pep->maxpacket) &&
 679              		.loc 1 431 0 discriminator 1
 680 0068 9942     		cmp	r1, r3
 681 006a DED8     		bhi	.L58
 433:Middlewares/ST/STM32_USB_Device_Library/Core/Src/usbd_core.c ****         {
 682              		.loc 1 433 0
 683 006c D0F89822 		ldr	r2, [r0, #664]
 432:Middlewares/ST/STM32_USB_Device_Library/Core/Src/usbd_core.c ****             (pep->total_length < pdev->ep0_data_len))
 684              		.loc 1 432 0
 685 0070 9342     		cmp	r3, r2
 686 0072 DAD2     		bcs	.L58
 435:Middlewares/ST/STM32_USB_Device_Library/Core/Src/usbd_core.c ****           pdev->ep0_data_len = 0U;
 687              		.loc 1 435 0
 688 0074 0022     		movs	r2, #0
 689 0076 1146     		mov	r1, r2
 690 0078 FFF7FEFF 		bl	USBD_CtlContinueSendData
 691              	.LVL79:
 436:Middlewares/ST/STM32_USB_Device_Library/Core/Src/usbd_core.c **** 
ARM GAS  C:\Users\User\AppData\Local\Temp\ccTM2mx2.s 			page 22


 692              		.loc 1 436 0
 693 007c 0021     		movs	r1, #0
 694 007e C4F89812 		str	r1, [r4, #664]
 439:Middlewares/ST/STM32_USB_Device_Library/Core/Src/usbd_core.c ****         }
 695              		.loc 1 439 0
 696 0082 0B46     		mov	r3, r1
 697 0084 0A46     		mov	r2, r1
 698 0086 2046     		mov	r0, r4
 699 0088 FFF7FEFF 		bl	USBD_LL_PrepareReceive
 700              	.LVL80:
 701 008c C1E7     		b	.L56
 702              	.L66:
 467:Middlewares/ST/STM32_USB_Device_Library/Core/Src/usbd_core.c ****     }
 703              		.loc 1 467 0
 704 008e 0020     		movs	r0, #0
 705 0090 84F8A002 		strb	r0, [r4, #672]
 706 0094 0AE0     		b	.L60
 707              	.LVL81:
 708              	.L55:
 709 0096 0A46     		mov	r2, r1
 710              	.LVL82:
 470:Middlewares/ST/STM32_USB_Device_Library/Core/Src/usbd_core.c ****            (pdev->dev_state == USBD_STATE_CONFIGURED))
 711              		.loc 1 470 0
 712 0098 D0F8B832 		ldr	r3, [r0, #696]
 713 009c 5B69     		ldr	r3, [r3, #20]
 714 009e 33B1     		cbz	r3, .L62
 471:Middlewares/ST/STM32_USB_Device_Library/Core/Src/usbd_core.c ****   {
 715              		.loc 1 471 0 discriminator 1
 716 00a0 90F89C12 		ldrb	r1, [r0, #668]	@ zero_extendqisi2
 717              	.LVL83:
 470:Middlewares/ST/STM32_USB_Device_Library/Core/Src/usbd_core.c ****            (pdev->dev_state == USBD_STATE_CONFIGURED))
 718              		.loc 1 470 0 discriminator 1
 719 00a4 0329     		cmp	r1, #3
 720 00a6 04D1     		bne	.L63
 473:Middlewares/ST/STM32_USB_Device_Library/Core/Src/usbd_core.c **** 
 721              		.loc 1 473 0
 722 00a8 1146     		mov	r1, r2
 723 00aa 9847     		blx	r3
 724              	.LVL84:
 725              	.L60:
 487:Middlewares/ST/STM32_USB_Device_Library/Core/Src/usbd_core.c **** }
 726              		.loc 1 487 0
 727 00ac 10BD     		pop	{r4, pc}
 728              	.LVL85:
 729              	.L62:
 483:Middlewares/ST/STM32_USB_Device_Library/Core/Src/usbd_core.c ****   }
 730              		.loc 1 483 0
 731 00ae 0320     		movs	r0, #3
 732              	.LVL86:
 733 00b0 FCE7     		b	.L60
 734              	.LVL87:
 735              	.L63:
 736 00b2 0320     		movs	r0, #3
 737              	.LVL88:
 738 00b4 FAE7     		b	.L60
 739              		.cfi_endproc
 740              	.LFE144:
ARM GAS  C:\Users\User\AppData\Local\Temp\ccTM2mx2.s 			page 23


 742              		.section	.text.USBD_LL_Reset,"ax",%progbits
 743              		.align	1
 744              		.global	USBD_LL_Reset
 745              		.syntax unified
 746              		.thumb
 747              		.thumb_func
 748              		.fpu fpv4-sp-d16
 750              	USBD_LL_Reset:
 751              	.LFB145:
 488:Middlewares/ST/STM32_USB_Device_Library/Core/Src/usbd_core.c **** 
 489:Middlewares/ST/STM32_USB_Device_Library/Core/Src/usbd_core.c **** /**
 490:Middlewares/ST/STM32_USB_Device_Library/Core/Src/usbd_core.c **** * @brief  USBD_LL_Reset
 491:Middlewares/ST/STM32_USB_Device_Library/Core/Src/usbd_core.c **** *         Handle Reset event
 492:Middlewares/ST/STM32_USB_Device_Library/Core/Src/usbd_core.c **** * @param  pdev: device instance
 493:Middlewares/ST/STM32_USB_Device_Library/Core/Src/usbd_core.c **** * @retval status
 494:Middlewares/ST/STM32_USB_Device_Library/Core/Src/usbd_core.c **** */
 495:Middlewares/ST/STM32_USB_Device_Library/Core/Src/usbd_core.c **** 
 496:Middlewares/ST/STM32_USB_Device_Library/Core/Src/usbd_core.c **** USBD_StatusTypeDef USBD_LL_Reset(USBD_HandleTypeDef *pdev)
 497:Middlewares/ST/STM32_USB_Device_Library/Core/Src/usbd_core.c **** {
 752              		.loc 1 497 0
 753              		.cfi_startproc
 754              		@ args = 0, pretend = 0, frame = 0
 755              		@ frame_needed = 0, uses_anonymous_args = 0
 756              	.LVL89:
 757 0000 70B5     		push	{r4, r5, r6, lr}
 758              	.LCFI14:
 759              		.cfi_def_cfa_offset 16
 760              		.cfi_offset 4, -16
 761              		.cfi_offset 5, -12
 762              		.cfi_offset 6, -8
 763              		.cfi_offset 14, -4
 764 0002 0446     		mov	r4, r0
 498:Middlewares/ST/STM32_USB_Device_Library/Core/Src/usbd_core.c ****   /* Upon Reset call user call back */
 499:Middlewares/ST/STM32_USB_Device_Library/Core/Src/usbd_core.c ****   pdev->dev_state = USBD_STATE_DEFAULT;
 765              		.loc 1 499 0
 766 0004 0123     		movs	r3, #1
 767 0006 80F89C32 		strb	r3, [r0, #668]
 500:Middlewares/ST/STM32_USB_Device_Library/Core/Src/usbd_core.c ****   pdev->ep0_state = USBD_EP0_IDLE;
 768              		.loc 1 500 0
 769 000a 0023     		movs	r3, #0
 770 000c C0F89432 		str	r3, [r0, #660]
 501:Middlewares/ST/STM32_USB_Device_Library/Core/Src/usbd_core.c ****   pdev->dev_config = 0U;
 771              		.loc 1 501 0
 772 0010 4360     		str	r3, [r0, #4]
 502:Middlewares/ST/STM32_USB_Device_Library/Core/Src/usbd_core.c ****   pdev->dev_remote_wakeup = 0U;
 773              		.loc 1 502 0
 774 0012 C0F8A432 		str	r3, [r0, #676]
 503:Middlewares/ST/STM32_USB_Device_Library/Core/Src/usbd_core.c **** 
 504:Middlewares/ST/STM32_USB_Device_Library/Core/Src/usbd_core.c ****   if (pdev->pClassData != NULL)
 775              		.loc 1 504 0
 776 0016 D0F8BC32 		ldr	r3, [r0, #700]
 777 001a 23B1     		cbz	r3, .L70
 505:Middlewares/ST/STM32_USB_Device_Library/Core/Src/usbd_core.c ****   {
 506:Middlewares/ST/STM32_USB_Device_Library/Core/Src/usbd_core.c ****     pdev->pClass->DeInit(pdev, (uint8_t)pdev->dev_config);
 778              		.loc 1 506 0
 779 001c D0F8B832 		ldr	r3, [r0, #696]
 780 0020 5B68     		ldr	r3, [r3, #4]
ARM GAS  C:\Users\User\AppData\Local\Temp\ccTM2mx2.s 			page 24


 781 0022 0021     		movs	r1, #0
 782 0024 9847     		blx	r3
 783              	.LVL90:
 784              	.L70:
 507:Middlewares/ST/STM32_USB_Device_Library/Core/Src/usbd_core.c ****   }
 508:Middlewares/ST/STM32_USB_Device_Library/Core/Src/usbd_core.c **** 
 509:Middlewares/ST/STM32_USB_Device_Library/Core/Src/usbd_core.c ****     /* Open EP0 OUT */
 510:Middlewares/ST/STM32_USB_Device_Library/Core/Src/usbd_core.c ****   (void)USBD_LL_OpenEP(pdev, 0x00U, USBD_EP_TYPE_CTRL, USB_MAX_EP0_SIZE);
 785              		.loc 1 510 0
 786 0026 4023     		movs	r3, #64
 787 0028 0022     		movs	r2, #0
 788 002a 1146     		mov	r1, r2
 789 002c 2046     		mov	r0, r4
 790 002e FFF7FEFF 		bl	USBD_LL_OpenEP
 791              	.LVL91:
 511:Middlewares/ST/STM32_USB_Device_Library/Core/Src/usbd_core.c ****   pdev->ep_out[0x00U & 0xFU].is_used = 1U;
 792              		.loc 1 511 0
 793 0032 0126     		movs	r6, #1
 794 0034 A4F86461 		strh	r6, [r4, #356]	@ movhi
 512:Middlewares/ST/STM32_USB_Device_Library/Core/Src/usbd_core.c **** 
 513:Middlewares/ST/STM32_USB_Device_Library/Core/Src/usbd_core.c ****   pdev->ep_out[0].maxpacket = USB_MAX_EP0_SIZE;
 795              		.loc 1 513 0
 796 0038 4025     		movs	r5, #64
 797 003a C4F86051 		str	r5, [r4, #352]
 514:Middlewares/ST/STM32_USB_Device_Library/Core/Src/usbd_core.c **** 
 515:Middlewares/ST/STM32_USB_Device_Library/Core/Src/usbd_core.c ****   /* Open EP0 IN */
 516:Middlewares/ST/STM32_USB_Device_Library/Core/Src/usbd_core.c ****   (void)USBD_LL_OpenEP(pdev, 0x80U, USBD_EP_TYPE_CTRL, USB_MAX_EP0_SIZE);
 798              		.loc 1 516 0
 799 003e 2B46     		mov	r3, r5
 800 0040 0022     		movs	r2, #0
 801 0042 8021     		movs	r1, #128
 802 0044 2046     		mov	r0, r4
 803 0046 FFF7FEFF 		bl	USBD_LL_OpenEP
 804              	.LVL92:
 517:Middlewares/ST/STM32_USB_Device_Library/Core/Src/usbd_core.c ****   pdev->ep_in[0x80U & 0xFU].is_used = 1U;
 805              		.loc 1 517 0
 806 004a A684     		strh	r6, [r4, #36]	@ movhi
 518:Middlewares/ST/STM32_USB_Device_Library/Core/Src/usbd_core.c **** 
 519:Middlewares/ST/STM32_USB_Device_Library/Core/Src/usbd_core.c ****   pdev->ep_in[0].maxpacket = USB_MAX_EP0_SIZE;
 807              		.loc 1 519 0
 808 004c 2562     		str	r5, [r4, #32]
 520:Middlewares/ST/STM32_USB_Device_Library/Core/Src/usbd_core.c **** 
 521:Middlewares/ST/STM32_USB_Device_Library/Core/Src/usbd_core.c ****   return USBD_OK;
 522:Middlewares/ST/STM32_USB_Device_Library/Core/Src/usbd_core.c **** }
 809              		.loc 1 522 0
 810 004e 0020     		movs	r0, #0
 811 0050 70BD     		pop	{r4, r5, r6, pc}
 812              		.cfi_endproc
 813              	.LFE145:
 815              		.section	.text.USBD_LL_SetSpeed,"ax",%progbits
 816              		.align	1
 817              		.global	USBD_LL_SetSpeed
 818              		.syntax unified
 819              		.thumb
 820              		.thumb_func
 821              		.fpu fpv4-sp-d16
 823              	USBD_LL_SetSpeed:
ARM GAS  C:\Users\User\AppData\Local\Temp\ccTM2mx2.s 			page 25


 824              	.LFB146:
 523:Middlewares/ST/STM32_USB_Device_Library/Core/Src/usbd_core.c **** 
 524:Middlewares/ST/STM32_USB_Device_Library/Core/Src/usbd_core.c **** /**
 525:Middlewares/ST/STM32_USB_Device_Library/Core/Src/usbd_core.c **** * @brief  USBD_LL_Reset
 526:Middlewares/ST/STM32_USB_Device_Library/Core/Src/usbd_core.c **** *         Handle Reset event
 527:Middlewares/ST/STM32_USB_Device_Library/Core/Src/usbd_core.c **** * @param  pdev: device instance
 528:Middlewares/ST/STM32_USB_Device_Library/Core/Src/usbd_core.c **** * @retval status
 529:Middlewares/ST/STM32_USB_Device_Library/Core/Src/usbd_core.c **** */
 530:Middlewares/ST/STM32_USB_Device_Library/Core/Src/usbd_core.c **** USBD_StatusTypeDef USBD_LL_SetSpeed(USBD_HandleTypeDef *pdev,
 531:Middlewares/ST/STM32_USB_Device_Library/Core/Src/usbd_core.c ****                                     USBD_SpeedTypeDef speed)
 532:Middlewares/ST/STM32_USB_Device_Library/Core/Src/usbd_core.c **** {
 825              		.loc 1 532 0
 826              		.cfi_startproc
 827              		@ args = 0, pretend = 0, frame = 0
 828              		@ frame_needed = 0, uses_anonymous_args = 0
 829              		@ link register save eliminated.
 830              	.LVL93:
 533:Middlewares/ST/STM32_USB_Device_Library/Core/Src/usbd_core.c ****   pdev->dev_speed = speed;
 831              		.loc 1 533 0
 832 0000 0174     		strb	r1, [r0, #16]
 534:Middlewares/ST/STM32_USB_Device_Library/Core/Src/usbd_core.c **** 
 535:Middlewares/ST/STM32_USB_Device_Library/Core/Src/usbd_core.c ****   return USBD_OK;
 536:Middlewares/ST/STM32_USB_Device_Library/Core/Src/usbd_core.c **** }
 833              		.loc 1 536 0
 834 0002 0020     		movs	r0, #0
 835              	.LVL94:
 836 0004 7047     		bx	lr
 837              		.cfi_endproc
 838              	.LFE146:
 840              		.section	.text.USBD_LL_Suspend,"ax",%progbits
 841              		.align	1
 842              		.global	USBD_LL_Suspend
 843              		.syntax unified
 844              		.thumb
 845              		.thumb_func
 846              		.fpu fpv4-sp-d16
 848              	USBD_LL_Suspend:
 849              	.LFB147:
 537:Middlewares/ST/STM32_USB_Device_Library/Core/Src/usbd_core.c **** 
 538:Middlewares/ST/STM32_USB_Device_Library/Core/Src/usbd_core.c **** /**
 539:Middlewares/ST/STM32_USB_Device_Library/Core/Src/usbd_core.c **** * @brief  USBD_Suspend
 540:Middlewares/ST/STM32_USB_Device_Library/Core/Src/usbd_core.c **** *         Handle Suspend event
 541:Middlewares/ST/STM32_USB_Device_Library/Core/Src/usbd_core.c **** * @param  pdev: device instance
 542:Middlewares/ST/STM32_USB_Device_Library/Core/Src/usbd_core.c **** * @retval status
 543:Middlewares/ST/STM32_USB_Device_Library/Core/Src/usbd_core.c **** */
 544:Middlewares/ST/STM32_USB_Device_Library/Core/Src/usbd_core.c **** 
 545:Middlewares/ST/STM32_USB_Device_Library/Core/Src/usbd_core.c **** USBD_StatusTypeDef USBD_LL_Suspend(USBD_HandleTypeDef *pdev)
 546:Middlewares/ST/STM32_USB_Device_Library/Core/Src/usbd_core.c **** {
 850              		.loc 1 546 0
 851              		.cfi_startproc
 852              		@ args = 0, pretend = 0, frame = 0
 853              		@ frame_needed = 0, uses_anonymous_args = 0
 854              		@ link register save eliminated.
 855              	.LVL95:
 547:Middlewares/ST/STM32_USB_Device_Library/Core/Src/usbd_core.c ****   pdev->dev_old_state = pdev->dev_state;
 856              		.loc 1 547 0
 857 0000 90F89C32 		ldrb	r3, [r0, #668]	@ zero_extendqisi2
ARM GAS  C:\Users\User\AppData\Local\Temp\ccTM2mx2.s 			page 26


 858 0004 80F89D32 		strb	r3, [r0, #669]
 548:Middlewares/ST/STM32_USB_Device_Library/Core/Src/usbd_core.c ****   pdev->dev_state = USBD_STATE_SUSPENDED;
 859              		.loc 1 548 0
 860 0008 0423     		movs	r3, #4
 861 000a 80F89C32 		strb	r3, [r0, #668]
 549:Middlewares/ST/STM32_USB_Device_Library/Core/Src/usbd_core.c **** 
 550:Middlewares/ST/STM32_USB_Device_Library/Core/Src/usbd_core.c ****   return USBD_OK;
 551:Middlewares/ST/STM32_USB_Device_Library/Core/Src/usbd_core.c **** }
 862              		.loc 1 551 0
 863 000e 0020     		movs	r0, #0
 864              	.LVL96:
 865 0010 7047     		bx	lr
 866              		.cfi_endproc
 867              	.LFE147:
 869              		.section	.text.USBD_LL_Resume,"ax",%progbits
 870              		.align	1
 871              		.global	USBD_LL_Resume
 872              		.syntax unified
 873              		.thumb
 874              		.thumb_func
 875              		.fpu fpv4-sp-d16
 877              	USBD_LL_Resume:
 878              	.LFB148:
 552:Middlewares/ST/STM32_USB_Device_Library/Core/Src/usbd_core.c **** 
 553:Middlewares/ST/STM32_USB_Device_Library/Core/Src/usbd_core.c **** /**
 554:Middlewares/ST/STM32_USB_Device_Library/Core/Src/usbd_core.c **** * @brief  USBD_Resume
 555:Middlewares/ST/STM32_USB_Device_Library/Core/Src/usbd_core.c **** *         Handle Resume event
 556:Middlewares/ST/STM32_USB_Device_Library/Core/Src/usbd_core.c **** * @param  pdev: device instance
 557:Middlewares/ST/STM32_USB_Device_Library/Core/Src/usbd_core.c **** * @retval status
 558:Middlewares/ST/STM32_USB_Device_Library/Core/Src/usbd_core.c **** */
 559:Middlewares/ST/STM32_USB_Device_Library/Core/Src/usbd_core.c **** 
 560:Middlewares/ST/STM32_USB_Device_Library/Core/Src/usbd_core.c **** USBD_StatusTypeDef USBD_LL_Resume(USBD_HandleTypeDef *pdev)
 561:Middlewares/ST/STM32_USB_Device_Library/Core/Src/usbd_core.c **** {
 879              		.loc 1 561 0
 880              		.cfi_startproc
 881              		@ args = 0, pretend = 0, frame = 0
 882              		@ frame_needed = 0, uses_anonymous_args = 0
 883              		@ link register save eliminated.
 884              	.LVL97:
 562:Middlewares/ST/STM32_USB_Device_Library/Core/Src/usbd_core.c ****   if (pdev->dev_state == USBD_STATE_SUSPENDED)
 885              		.loc 1 562 0
 886 0000 90F89C32 		ldrb	r3, [r0, #668]	@ zero_extendqisi2
 887 0004 042B     		cmp	r3, #4
 888 0006 01D0     		beq	.L76
 889              	.L75:
 563:Middlewares/ST/STM32_USB_Device_Library/Core/Src/usbd_core.c ****   {
 564:Middlewares/ST/STM32_USB_Device_Library/Core/Src/usbd_core.c ****     pdev->dev_state = pdev->dev_old_state;
 565:Middlewares/ST/STM32_USB_Device_Library/Core/Src/usbd_core.c ****   }
 566:Middlewares/ST/STM32_USB_Device_Library/Core/Src/usbd_core.c **** 
 567:Middlewares/ST/STM32_USB_Device_Library/Core/Src/usbd_core.c ****   return USBD_OK;
 568:Middlewares/ST/STM32_USB_Device_Library/Core/Src/usbd_core.c **** }
 890              		.loc 1 568 0
 891 0008 0020     		movs	r0, #0
 892              	.LVL98:
 893 000a 7047     		bx	lr
 894              	.LVL99:
 895              	.L76:
ARM GAS  C:\Users\User\AppData\Local\Temp\ccTM2mx2.s 			page 27


 564:Middlewares/ST/STM32_USB_Device_Library/Core/Src/usbd_core.c ****   }
 896              		.loc 1 564 0
 897 000c 90F89D32 		ldrb	r3, [r0, #669]	@ zero_extendqisi2
 898 0010 80F89C32 		strb	r3, [r0, #668]
 899 0014 F8E7     		b	.L75
 900              		.cfi_endproc
 901              	.LFE148:
 903              		.section	.text.USBD_LL_SOF,"ax",%progbits
 904              		.align	1
 905              		.global	USBD_LL_SOF
 906              		.syntax unified
 907              		.thumb
 908              		.thumb_func
 909              		.fpu fpv4-sp-d16
 911              	USBD_LL_SOF:
 912              	.LFB149:
 569:Middlewares/ST/STM32_USB_Device_Library/Core/Src/usbd_core.c **** 
 570:Middlewares/ST/STM32_USB_Device_Library/Core/Src/usbd_core.c **** /**
 571:Middlewares/ST/STM32_USB_Device_Library/Core/Src/usbd_core.c **** * @brief  USBD_SOF
 572:Middlewares/ST/STM32_USB_Device_Library/Core/Src/usbd_core.c **** *         Handle SOF event
 573:Middlewares/ST/STM32_USB_Device_Library/Core/Src/usbd_core.c **** * @param  pdev: device instance
 574:Middlewares/ST/STM32_USB_Device_Library/Core/Src/usbd_core.c **** * @retval status
 575:Middlewares/ST/STM32_USB_Device_Library/Core/Src/usbd_core.c **** */
 576:Middlewares/ST/STM32_USB_Device_Library/Core/Src/usbd_core.c **** 
 577:Middlewares/ST/STM32_USB_Device_Library/Core/Src/usbd_core.c **** USBD_StatusTypeDef USBD_LL_SOF(USBD_HandleTypeDef *pdev)
 578:Middlewares/ST/STM32_USB_Device_Library/Core/Src/usbd_core.c **** {
 913              		.loc 1 578 0
 914              		.cfi_startproc
 915              		@ args = 0, pretend = 0, frame = 0
 916              		@ frame_needed = 0, uses_anonymous_args = 0
 917              	.LVL100:
 918 0000 08B5     		push	{r3, lr}
 919              	.LCFI15:
 920              		.cfi_def_cfa_offset 8
 921              		.cfi_offset 3, -8
 922              		.cfi_offset 14, -4
 579:Middlewares/ST/STM32_USB_Device_Library/Core/Src/usbd_core.c ****   if (pdev->dev_state == USBD_STATE_CONFIGURED)
 923              		.loc 1 579 0
 924 0002 90F89C32 		ldrb	r3, [r0, #668]	@ zero_extendqisi2
 925 0006 032B     		cmp	r3, #3
 926 0008 01D0     		beq	.L80
 927              	.LVL101:
 928              	.L78:
 580:Middlewares/ST/STM32_USB_Device_Library/Core/Src/usbd_core.c ****   {
 581:Middlewares/ST/STM32_USB_Device_Library/Core/Src/usbd_core.c ****     if (pdev->pClass->SOF != NULL)
 582:Middlewares/ST/STM32_USB_Device_Library/Core/Src/usbd_core.c ****     {
 583:Middlewares/ST/STM32_USB_Device_Library/Core/Src/usbd_core.c ****       pdev->pClass->SOF(pdev);
 584:Middlewares/ST/STM32_USB_Device_Library/Core/Src/usbd_core.c ****     }
 585:Middlewares/ST/STM32_USB_Device_Library/Core/Src/usbd_core.c ****   }
 586:Middlewares/ST/STM32_USB_Device_Library/Core/Src/usbd_core.c **** 
 587:Middlewares/ST/STM32_USB_Device_Library/Core/Src/usbd_core.c ****   return USBD_OK;
 588:Middlewares/ST/STM32_USB_Device_Library/Core/Src/usbd_core.c **** }
 929              		.loc 1 588 0
 930 000a 0020     		movs	r0, #0
 931 000c 08BD     		pop	{r3, pc}
 932              	.LVL102:
 933              	.L80:
ARM GAS  C:\Users\User\AppData\Local\Temp\ccTM2mx2.s 			page 28


 581:Middlewares/ST/STM32_USB_Device_Library/Core/Src/usbd_core.c ****     {
 934              		.loc 1 581 0
 935 000e D0F8B832 		ldr	r3, [r0, #696]
 936 0012 DB69     		ldr	r3, [r3, #28]
 937 0014 002B     		cmp	r3, #0
 938 0016 F8D0     		beq	.L78
 583:Middlewares/ST/STM32_USB_Device_Library/Core/Src/usbd_core.c ****     }
 939              		.loc 1 583 0
 940 0018 9847     		blx	r3
 941              	.LVL103:
 942 001a F6E7     		b	.L78
 943              		.cfi_endproc
 944              	.LFE149:
 946              		.section	.text.USBD_LL_IsoINIncomplete,"ax",%progbits
 947              		.align	1
 948              		.global	USBD_LL_IsoINIncomplete
 949              		.syntax unified
 950              		.thumb
 951              		.thumb_func
 952              		.fpu fpv4-sp-d16
 954              	USBD_LL_IsoINIncomplete:
 955              	.LFB150:
 589:Middlewares/ST/STM32_USB_Device_Library/Core/Src/usbd_core.c **** 
 590:Middlewares/ST/STM32_USB_Device_Library/Core/Src/usbd_core.c **** /**
 591:Middlewares/ST/STM32_USB_Device_Library/Core/Src/usbd_core.c **** * @brief  USBD_IsoINIncomplete
 592:Middlewares/ST/STM32_USB_Device_Library/Core/Src/usbd_core.c **** *         Handle iso in incomplete event
 593:Middlewares/ST/STM32_USB_Device_Library/Core/Src/usbd_core.c **** * @param  pdev: device instance
 594:Middlewares/ST/STM32_USB_Device_Library/Core/Src/usbd_core.c **** * @retval status
 595:Middlewares/ST/STM32_USB_Device_Library/Core/Src/usbd_core.c **** */
 596:Middlewares/ST/STM32_USB_Device_Library/Core/Src/usbd_core.c **** USBD_StatusTypeDef USBD_LL_IsoINIncomplete(USBD_HandleTypeDef *pdev,
 597:Middlewares/ST/STM32_USB_Device_Library/Core/Src/usbd_core.c ****                                            uint8_t epnum)
 598:Middlewares/ST/STM32_USB_Device_Library/Core/Src/usbd_core.c **** {
 956              		.loc 1 598 0
 957              		.cfi_startproc
 958              		@ args = 0, pretend = 0, frame = 0
 959              		@ frame_needed = 0, uses_anonymous_args = 0
 960              		@ link register save eliminated.
 961              	.LVL104:
 599:Middlewares/ST/STM32_USB_Device_Library/Core/Src/usbd_core.c ****   /* Prevent unused arguments compilation warning */
 600:Middlewares/ST/STM32_USB_Device_Library/Core/Src/usbd_core.c ****   UNUSED(pdev);
 601:Middlewares/ST/STM32_USB_Device_Library/Core/Src/usbd_core.c ****   UNUSED(epnum);
 602:Middlewares/ST/STM32_USB_Device_Library/Core/Src/usbd_core.c **** 
 603:Middlewares/ST/STM32_USB_Device_Library/Core/Src/usbd_core.c ****   return USBD_OK;
 604:Middlewares/ST/STM32_USB_Device_Library/Core/Src/usbd_core.c **** }
 962              		.loc 1 604 0
 963 0000 0020     		movs	r0, #0
 964              	.LVL105:
 965 0002 7047     		bx	lr
 966              		.cfi_endproc
 967              	.LFE150:
 969              		.section	.text.USBD_LL_IsoOUTIncomplete,"ax",%progbits
 970              		.align	1
 971              		.global	USBD_LL_IsoOUTIncomplete
 972              		.syntax unified
 973              		.thumb
 974              		.thumb_func
 975              		.fpu fpv4-sp-d16
ARM GAS  C:\Users\User\AppData\Local\Temp\ccTM2mx2.s 			page 29


 977              	USBD_LL_IsoOUTIncomplete:
 978              	.LFB151:
 605:Middlewares/ST/STM32_USB_Device_Library/Core/Src/usbd_core.c **** 
 606:Middlewares/ST/STM32_USB_Device_Library/Core/Src/usbd_core.c **** /**
 607:Middlewares/ST/STM32_USB_Device_Library/Core/Src/usbd_core.c **** * @brief  USBD_IsoOUTIncomplete
 608:Middlewares/ST/STM32_USB_Device_Library/Core/Src/usbd_core.c **** *         Handle iso out incomplete event
 609:Middlewares/ST/STM32_USB_Device_Library/Core/Src/usbd_core.c **** * @param  pdev: device instance
 610:Middlewares/ST/STM32_USB_Device_Library/Core/Src/usbd_core.c **** * @retval status
 611:Middlewares/ST/STM32_USB_Device_Library/Core/Src/usbd_core.c **** */
 612:Middlewares/ST/STM32_USB_Device_Library/Core/Src/usbd_core.c **** USBD_StatusTypeDef USBD_LL_IsoOUTIncomplete(USBD_HandleTypeDef *pdev,
 613:Middlewares/ST/STM32_USB_Device_Library/Core/Src/usbd_core.c ****                                             uint8_t epnum)
 614:Middlewares/ST/STM32_USB_Device_Library/Core/Src/usbd_core.c **** {
 979              		.loc 1 614 0
 980              		.cfi_startproc
 981              		@ args = 0, pretend = 0, frame = 0
 982              		@ frame_needed = 0, uses_anonymous_args = 0
 983              		@ link register save eliminated.
 984              	.LVL106:
 615:Middlewares/ST/STM32_USB_Device_Library/Core/Src/usbd_core.c ****   /* Prevent unused arguments compilation warning */
 616:Middlewares/ST/STM32_USB_Device_Library/Core/Src/usbd_core.c ****   UNUSED(pdev);
 617:Middlewares/ST/STM32_USB_Device_Library/Core/Src/usbd_core.c ****   UNUSED(epnum);
 618:Middlewares/ST/STM32_USB_Device_Library/Core/Src/usbd_core.c **** 
 619:Middlewares/ST/STM32_USB_Device_Library/Core/Src/usbd_core.c ****   return USBD_OK;
 620:Middlewares/ST/STM32_USB_Device_Library/Core/Src/usbd_core.c **** }
 985              		.loc 1 620 0
 986 0000 0020     		movs	r0, #0
 987              	.LVL107:
 988 0002 7047     		bx	lr
 989              		.cfi_endproc
 990              	.LFE151:
 992              		.section	.text.USBD_LL_DevConnected,"ax",%progbits
 993              		.align	1
 994              		.global	USBD_LL_DevConnected
 995              		.syntax unified
 996              		.thumb
 997              		.thumb_func
 998              		.fpu fpv4-sp-d16
 1000              	USBD_LL_DevConnected:
 1001              	.LFB152:
 621:Middlewares/ST/STM32_USB_Device_Library/Core/Src/usbd_core.c **** 
 622:Middlewares/ST/STM32_USB_Device_Library/Core/Src/usbd_core.c **** /**
 623:Middlewares/ST/STM32_USB_Device_Library/Core/Src/usbd_core.c **** * @brief  USBD_DevConnected
 624:Middlewares/ST/STM32_USB_Device_Library/Core/Src/usbd_core.c **** *         Handle device connection event
 625:Middlewares/ST/STM32_USB_Device_Library/Core/Src/usbd_core.c **** * @param  pdev: device instance
 626:Middlewares/ST/STM32_USB_Device_Library/Core/Src/usbd_core.c **** * @retval status
 627:Middlewares/ST/STM32_USB_Device_Library/Core/Src/usbd_core.c **** */
 628:Middlewares/ST/STM32_USB_Device_Library/Core/Src/usbd_core.c **** USBD_StatusTypeDef USBD_LL_DevConnected(USBD_HandleTypeDef *pdev)
 629:Middlewares/ST/STM32_USB_Device_Library/Core/Src/usbd_core.c **** {
 1002              		.loc 1 629 0
 1003              		.cfi_startproc
 1004              		@ args = 0, pretend = 0, frame = 0
 1005              		@ frame_needed = 0, uses_anonymous_args = 0
 1006              		@ link register save eliminated.
 1007              	.LVL108:
 630:Middlewares/ST/STM32_USB_Device_Library/Core/Src/usbd_core.c ****   /* Prevent unused argument compilation warning */
 631:Middlewares/ST/STM32_USB_Device_Library/Core/Src/usbd_core.c ****   UNUSED(pdev);
 632:Middlewares/ST/STM32_USB_Device_Library/Core/Src/usbd_core.c **** 
ARM GAS  C:\Users\User\AppData\Local\Temp\ccTM2mx2.s 			page 30


 633:Middlewares/ST/STM32_USB_Device_Library/Core/Src/usbd_core.c ****   return USBD_OK;
 634:Middlewares/ST/STM32_USB_Device_Library/Core/Src/usbd_core.c **** }
 1008              		.loc 1 634 0
 1009 0000 0020     		movs	r0, #0
 1010              	.LVL109:
 1011 0002 7047     		bx	lr
 1012              		.cfi_endproc
 1013              	.LFE152:
 1015              		.section	.text.USBD_LL_DevDisconnected,"ax",%progbits
 1016              		.align	1
 1017              		.global	USBD_LL_DevDisconnected
 1018              		.syntax unified
 1019              		.thumb
 1020              		.thumb_func
 1021              		.fpu fpv4-sp-d16
 1023              	USBD_LL_DevDisconnected:
 1024              	.LFB153:
 635:Middlewares/ST/STM32_USB_Device_Library/Core/Src/usbd_core.c **** 
 636:Middlewares/ST/STM32_USB_Device_Library/Core/Src/usbd_core.c **** /**
 637:Middlewares/ST/STM32_USB_Device_Library/Core/Src/usbd_core.c **** * @brief  USBD_DevDisconnected
 638:Middlewares/ST/STM32_USB_Device_Library/Core/Src/usbd_core.c **** *         Handle device disconnection event
 639:Middlewares/ST/STM32_USB_Device_Library/Core/Src/usbd_core.c **** * @param  pdev: device instance
 640:Middlewares/ST/STM32_USB_Device_Library/Core/Src/usbd_core.c **** * @retval status
 641:Middlewares/ST/STM32_USB_Device_Library/Core/Src/usbd_core.c **** */
 642:Middlewares/ST/STM32_USB_Device_Library/Core/Src/usbd_core.c **** USBD_StatusTypeDef USBD_LL_DevDisconnected(USBD_HandleTypeDef *pdev)
 643:Middlewares/ST/STM32_USB_Device_Library/Core/Src/usbd_core.c **** {
 1025              		.loc 1 643 0
 1026              		.cfi_startproc
 1027              		@ args = 0, pretend = 0, frame = 0
 1028              		@ frame_needed = 0, uses_anonymous_args = 0
 1029              	.LVL110:
 1030 0000 08B5     		push	{r3, lr}
 1031              	.LCFI16:
 1032              		.cfi_def_cfa_offset 8
 1033              		.cfi_offset 3, -8
 1034              		.cfi_offset 14, -4
 644:Middlewares/ST/STM32_USB_Device_Library/Core/Src/usbd_core.c ****   /* Free Class Resources */
 645:Middlewares/ST/STM32_USB_Device_Library/Core/Src/usbd_core.c ****   pdev->dev_state = USBD_STATE_DEFAULT;
 1035              		.loc 1 645 0
 1036 0002 0123     		movs	r3, #1
 1037 0004 80F89C32 		strb	r3, [r0, #668]
 646:Middlewares/ST/STM32_USB_Device_Library/Core/Src/usbd_core.c **** 
 647:Middlewares/ST/STM32_USB_Device_Library/Core/Src/usbd_core.c ****   if (pdev->pClass != NULL)
 1038              		.loc 1 647 0
 1039 0008 D0F8B832 		ldr	r3, [r0, #696]
 1040 000c 13B1     		cbz	r3, .L85
 648:Middlewares/ST/STM32_USB_Device_Library/Core/Src/usbd_core.c ****   {
 649:Middlewares/ST/STM32_USB_Device_Library/Core/Src/usbd_core.c ****     pdev->pClass->DeInit(pdev, (uint8_t)pdev->dev_config);
 1041              		.loc 1 649 0
 1042 000e 5B68     		ldr	r3, [r3, #4]
 1043 0010 0179     		ldrb	r1, [r0, #4]	@ zero_extendqisi2
 1044 0012 9847     		blx	r3
 1045              	.LVL111:
 1046              	.L85:
 650:Middlewares/ST/STM32_USB_Device_Library/Core/Src/usbd_core.c ****   }
 651:Middlewares/ST/STM32_USB_Device_Library/Core/Src/usbd_core.c **** 
 652:Middlewares/ST/STM32_USB_Device_Library/Core/Src/usbd_core.c ****   return USBD_OK;
ARM GAS  C:\Users\User\AppData\Local\Temp\ccTM2mx2.s 			page 31


 653:Middlewares/ST/STM32_USB_Device_Library/Core/Src/usbd_core.c **** }
 1047              		.loc 1 653 0
 1048 0014 0020     		movs	r0, #0
 1049 0016 08BD     		pop	{r3, pc}
 1050              		.cfi_endproc
 1051              	.LFE153:
 1053              		.text
 1054              	.Letext0:
 1055              		.file 2 "d:\\stm32_project\\tool\\7-2018-q2-update\\arm-none-eabi\\include\\machine\\_default_type
 1056              		.file 3 "d:\\stm32_project\\tool\\7-2018-q2-update\\arm-none-eabi\\include\\sys\\lock.h"
 1057              		.file 4 "d:\\stm32_project\\tool\\7-2018-q2-update\\arm-none-eabi\\include\\sys\\_types.h"
 1058              		.file 5 "d:\\stm32_project\\tool\\7-2018-q2-update\\lib\\gcc\\arm-none-eabi\\7.3.1\\include\\stdde
 1059              		.file 6 "d:\\stm32_project\\tool\\7-2018-q2-update\\arm-none-eabi\\include\\sys\\reent.h"
 1060              		.file 7 "d:\\stm32_project\\tool\\7-2018-q2-update\\arm-none-eabi\\include\\sys\\_stdint.h"
 1061              		.file 8 "d:\\stm32_project\\tool\\7-2018-q2-update\\arm-none-eabi\\include\\stdlib.h"
 1062              		.file 9 "Drivers/CMSIS/Include/core_cm4.h"
 1063              		.file 10 "Drivers/CMSIS/Device/ST/STM32F4xx/Include/system_stm32f4xx.h"
 1064              		.file 11 "Drivers/STM32F4xx_HAL_Driver/Inc/stm32f4xx_hal.h"
 1065              		.file 12 "Middlewares/ST/STM32_USB_Device_Library/Core/Inc/usbd_def.h"
 1066              		.file 13 "Middlewares/ST/STM32_USB_Device_Library/Core/Inc/usbd_core.h"
 1067              		.file 14 "Middlewares/ST/STM32_USB_Device_Library/Core/Inc/usbd_ioreq.h"
 1068              		.file 15 "Middlewares/ST/STM32_USB_Device_Library/Core/Inc/usbd_ctlreq.h"
ARM GAS  C:\Users\User\AppData\Local\Temp\ccTM2mx2.s 			page 32

